;--------------------------------------------------------
; File Created by SDCC : free open source ANSI-C Compiler
; Version 4.0.0 #11528 (Linux)
;--------------------------------------------------------
	.module main
	.optsdcc -mz80
	
;--------------------------------------------------------
; Public variables in this module
;--------------------------------------------------------
	.globl _main
	.globl _my_isr
	.globl _put_text
	.globl _sprintf
	.globl _ubox_wait
	.globl _ubox_set_user_isr
	.globl _ubox_init_isr
	.globl _ubox_fill_screen
	.globl _ubox_put_tile
	.globl _ubox_set_tiles_colors
	.globl _ubox_set_tiles
	.globl _ubox_wvdp
	.globl _ubox_set_colors
	.globl _ubox_disable_screen
	.globl _ubox_enable_screen
	.globl _ubox_set_mode
	.globl _g_counter
	.globl _g_count
	.globl _buffer
	.globl _tiles_colors
	.globl _tiles
;--------------------------------------------------------
; special function registers
;--------------------------------------------------------
;--------------------------------------------------------
; ram data
;--------------------------------------------------------
	.area _DATA
G$buffer$0_0$0==.
_buffer::
	.ds 10
;--------------------------------------------------------
; ram data
;--------------------------------------------------------
	.area _INITIALIZED
G$g_count$0_0$0==.
_g_count::
	.ds 2
G$g_counter$0_0$0==.
_g_counter::
	.ds 2
;--------------------------------------------------------
; absolute external ram data
;--------------------------------------------------------
	.area _DABS (ABS)
;--------------------------------------------------------
; global & static initialisations
;--------------------------------------------------------
	.area _HOME
	.area _GSINIT
	.area _GSFINAL
	.area _GSINIT
;--------------------------------------------------------
; Home
;--------------------------------------------------------
	.area _HOME
	.area _HOME
;--------------------------------------------------------
; code
;--------------------------------------------------------
	.area _CODE
	G$put_text$0$0	= .
	.globl	G$put_text$0$0
	C$main.c$10$0_0$34	= .
	.globl	C$main.c$10$0_0$34
;main.c:10: void put_text(uint8_t x, uint8_t y, const uint8_t *text)
;	---------------------------------
; Function put_text
; ---------------------------------
_put_text::
	C$main.c$12$1_0$34	= .
	.globl	C$main.c$12$1_0$34
;main.c:12: while (*text)
	ld	iy, #4
	add	iy, sp
	ld	c, 0 (iy)
	ld	b, 1 (iy)
	dec	iy
	dec	iy
	ld	e, 0 (iy)
00101$:
	ld	a, (bc)
	or	a, a
	ret	Z
	C$main.c$13$1_0$34	= .
	.globl	C$main.c$13$1_0$34
;main.c:13: ubox_put_tile(x++, y, *text++ + 128 - 31);
	inc	bc
	add	a, #0x61
	ld	h, a
	ld	d, e
	inc	e
	ld	iy, #2
	add	iy, sp
	ld	0 (iy), e
	push	bc
	push	de
	push	hl
	inc	sp
	inc	iy
	ld	a, 0 (iy)
	push	af
	inc	sp
	push	de
	inc	sp
	call	_ubox_put_tile
	pop	af
	inc	sp
	pop	de
	pop	bc
	C$main.c$14$1_0$34	= .
	.globl	C$main.c$14$1_0$34
;main.c:14: }
	C$main.c$14$1_0$34	= .
	.globl	C$main.c$14$1_0$34
	XG$put_text$0$0	= .
	.globl	XG$put_text$0$0
	jr	00101$
G$tiles$0_0$0 == .
_tiles:
	.db #0x00	; 0
	.db #0x00	; 0
	.db #0x00	; 0
	.db #0x00	; 0
	.db #0x00	; 0
	.db #0x00	; 0
	.db #0x00	; 0
	.db #0x00	; 0
	.db #0x00	; 0
	.db #0x00	; 0
	.db #0x00	; 0
	.db #0x00	; 0
	.db #0x00	; 0
	.db #0x00	; 0
	.db #0x00	; 0
	.db #0x00	; 0
	.db #0x00	; 0
	.db #0x00	; 0
	.db #0x00	; 0
	.db #0x00	; 0
	.db #0x00	; 0
	.db #0x00	; 0
	.db #0x00	; 0
	.db #0x00	; 0
	.db #0x00	; 0
	.db #0x00	; 0
	.db #0x00	; 0
	.db #0x00	; 0
	.db #0x00	; 0
	.db #0x00	; 0
	.db #0x00	; 0
	.db #0x00	; 0
	.db #0x00	; 0
	.db #0x00	; 0
	.db #0x00	; 0
	.db #0x00	; 0
	.db #0x00	; 0
	.db #0x00	; 0
	.db #0x00	; 0
	.db #0x00	; 0
	.db #0xaa	; 170
	.db #0xd5	; 213
	.db #0x00	; 0
	.db #0x00	; 0
	.db #0xd5	; 213
	.db #0xaa	; 170
	.db #0x00	; 0
	.db #0x00	; 0
	.db #0xaa	; 170
	.db #0x56	; 86	'V'
	.db #0xfe	; 254
	.db #0xfe	; 254
	.db #0x56	; 86	'V'
	.db #0xaa	; 170
	.db #0x00	; 0
	.db #0x00	; 0
	.db #0x24	; 36
	.db #0x48	; 72	'H'
	.db #0x90	; 144
	.db #0x20	; 32
	.db #0x40	; 64
	.db #0x80	; 128
	.db #0x00	; 0
	.db #0x00	; 0
	.db #0x01	; 1
	.db #0x03	; 3
	.db #0x05	; 5
	.db #0x09	; 9
	.db #0x13	; 19
	.db #0x25	; 37
	.db #0x49	; 73	'I'
	.db #0x00	; 0
	.db #0x20	; 32
	.db #0x10	; 16
	.db #0x20	; 32
	.db #0x10	; 16
	.db #0x20	; 32
	.db #0x10	; 16
	.db #0x00	; 0
	.db #0x00	; 0
	.db #0x11	; 17
	.db #0x09	; 9
	.db #0x11	; 17
	.db #0x09	; 9
	.db #0x11	; 17
	.db #0x09	; 9
	.db #0x00	; 0
	.db #0x00	; 0
	.db #0x00	; 0
	.db #0x00	; 0
	.db #0x00	; 0
	.db #0x00	; 0
	.db #0x00	; 0
	.db #0x00	; 0
	.db #0x00	; 0
	.db #0x00	; 0
	.db #0x00	; 0
	.db #0x55	; 85	'U'
	.db #0x00	; 0
	.db #0x00	; 0
	.db #0x00	; 0
	.db #0x00	; 0
	.db #0x00	; 0
	.db #0x00	; 0
	.db #0x00	; 0
	.db #0x55	; 85	'U'
	.db #0x00	; 0
	.db #0x7f	; 127
	.db #0x00	; 0
	.db #0x7f	; 127
	.db #0x00	; 0
	.db #0x00	; 0
	.db #0x7f	; 127
	.db #0x00	; 0
	.db #0x7f	; 127
	.db #0x00	; 0
	.db #0x7f	; 127
	.db #0x00	; 0
	.db #0x7f	; 127
	.db #0x00	; 0
	.db #0xfd	; 253
	.db #0x00	; 0
	.db #0xfd	; 253
	.db #0x00	; 0
	.db #0xfd	; 253
	.db #0x00	; 0
	.db #0xfd	; 253
	.db #0x00	; 0
	.db #0x00	; 0
	.db #0x00	; 0
	.db #0x00	; 0
	.db #0x00	; 0
	.db #0x00	; 0
	.db #0x00	; 0
	.db #0x00	; 0
	.db #0x00	; 0
	.db #0x00	; 0
	.db #0x00	; 0
	.db #0x00	; 0
	.db #0x00	; 0
	.db #0x00	; 0
	.db #0x00	; 0
	.db #0x00	; 0
	.db #0x00	; 0
	.db #0x00	; 0
	.db #0x00	; 0
	.db #0x00	; 0
	.db #0x00	; 0
	.db #0x00	; 0
	.db #0x00	; 0
	.db #0x00	; 0
	.db #0x00	; 0
	.db #0x00	; 0
	.db #0x00	; 0
	.db #0x00	; 0
	.db #0x00	; 0
	.db #0x00	; 0
	.db #0x00	; 0
	.db #0x00	; 0
	.db #0x00	; 0
	.db #0x00	; 0
	.db #0x00	; 0
	.db #0x00	; 0
	.db #0x00	; 0
	.db #0x00	; 0
	.db #0x00	; 0
	.db #0x00	; 0
	.db #0x00	; 0
	.db #0x00	; 0
	.db #0x00	; 0
	.db #0x00	; 0
	.db #0x00	; 0
	.db #0x00	; 0
	.db #0x00	; 0
	.db #0x00	; 0
	.db #0x00	; 0
	.db #0x00	; 0
	.db #0x00	; 0
	.db #0x00	; 0
	.db #0x00	; 0
	.db #0x00	; 0
	.db #0x00	; 0
	.db #0x00	; 0
	.db #0x00	; 0
	.db #0x00	; 0
	.db #0x00	; 0
	.db #0x00	; 0
	.db #0x00	; 0
	.db #0x00	; 0
	.db #0x00	; 0
	.db #0x00	; 0
	.db #0x00	; 0
	.db #0x00	; 0
	.db #0x00	; 0
	.db #0x00	; 0
	.db #0x00	; 0
	.db #0x00	; 0
	.db #0x00	; 0
	.db #0x00	; 0
	.db #0x00	; 0
	.db #0x00	; 0
	.db #0x00	; 0
	.db #0x00	; 0
	.db #0x00	; 0
	.db #0x00	; 0
	.db #0x00	; 0
	.db #0x00	; 0
	.db #0x00	; 0
	.db #0x00	; 0
	.db #0x00	; 0
	.db #0x00	; 0
	.db #0x00	; 0
	.db #0x00	; 0
	.db #0x00	; 0
	.db #0x00	; 0
	.db #0x00	; 0
	.db #0x00	; 0
	.db #0x00	; 0
	.db #0x00	; 0
	.db #0x00	; 0
	.db #0x00	; 0
	.db #0x00	; 0
	.db #0x00	; 0
	.db #0x00	; 0
	.db #0x00	; 0
	.db #0x00	; 0
	.db #0x00	; 0
	.db #0x00	; 0
	.db #0x00	; 0
	.db #0x00	; 0
	.db #0x00	; 0
	.db #0x00	; 0
	.db #0x00	; 0
	.db #0x00	; 0
	.db #0x00	; 0
	.db #0x00	; 0
	.db #0x00	; 0
	.db #0x00	; 0
	.db #0x00	; 0
	.db #0x00	; 0
	.db #0x00	; 0
	.db #0x00	; 0
	.db #0x00	; 0
	.db #0x00	; 0
	.db #0x00	; 0
	.db #0x00	; 0
	.db #0x00	; 0
	.db #0x00	; 0
	.db #0x00	; 0
	.db #0x00	; 0
	.db #0x00	; 0
	.db #0x00	; 0
	.db #0x00	; 0
	.db #0x00	; 0
	.db #0x00	; 0
	.db #0x00	; 0
	.db #0x00	; 0
	.db #0x00	; 0
	.db #0x00	; 0
	.db #0x01	; 1
	.db #0x07	; 7
	.db #0x0f	; 15
	.db #0x1f	; 31
	.db #0x1e	; 30
	.db #0x00	; 0
	.db #0x00	; 0
	.db #0x00	; 0
	.db #0xf8	; 248
	.db #0xfe	; 254
	.db #0x00	; 0
	.db #0x0f	; 15
	.db #0x07	; 7
	.db #0x00	; 0
	.db #0x00	; 0
	.db #0x00	; 0
	.db #0x0f	; 15
	.db #0x0f	; 15
	.db #0x0f	; 15
	.db #0x0f	; 15
	.db #0x8e	; 142
	.db #0x00	; 0
	.db #0x00	; 0
	.db #0x00	; 0
	.db #0xfc	; 252
	.db #0x00	; 0
	.db #0x00	; 0
	.db #0x07	; 7
	.db #0x07	; 7
	.db #0x00	; 0
	.db #0x00	; 0
	.db #0x00	; 0
	.db #0x0f	; 15
	.db #0x0f	; 15
	.db #0x0f	; 15
	.db #0x8f	; 143
	.db #0x8e	; 142
	.db #0x00	; 0
	.db #0x00	; 0
	.db #0x00	; 0
	.db #0x00	; 0
	.db #0x00	; 0
	.db #0x00	; 0
	.db #0x00	; 0
	.db #0x00	; 0
	.db #0x00	; 0
	.db #0x00	; 0
	.db #0x00	; 0
	.db #0x3f	; 63
	.db #0x3f	; 63
	.db #0x3f	; 63
	.db #0x3c	; 60
	.db #0x38	; 56	'8'
	.db #0x00	; 0
	.db #0x00	; 0
	.db #0x00	; 0
	.db #0xfc	; 252
	.db #0xfc	; 252
	.db #0xfc	; 252
	.db #0x00	; 0
	.db #0x00	; 0
	.db #0x00	; 0
	.db #0x00	; 0
	.db #0x00	; 0
	.db #0xf0	; 240
	.db #0xf8	; 248
	.db #0xf8	; 248
	.db #0xfc	; 252
	.db #0xfc	; 252
	.db #0x00	; 0
	.db #0x00	; 0
	.db #0x00	; 0
	.db #0x1e	; 30
	.db #0x1e	; 30
	.db #0x1e	; 30
	.db #0x1c	; 28
	.db #0x1c	; 28
	.db #0x00	; 0
	.db #0x00	; 0
	.db #0x00	; 0
	.db #0x00	; 0
	.db #0x00	; 0
	.db #0x00	; 0
	.db #0x00	; 0
	.db #0x00	; 0
	.db #0x00	; 0
	.db #0x00	; 0
	.db #0x00	; 0
	.db #0x00	; 0
	.db #0x00	; 0
	.db #0x00	; 0
	.db #0x00	; 0
	.db #0x00	; 0
	.db #0x00	; 0
	.db #0x00	; 0
	.db #0x00	; 0
	.db #0x00	; 0
	.db #0x00	; 0
	.db #0x00	; 0
	.db #0x00	; 0
	.db #0x00	; 0
	.db #0x00	; 0
	.db #0x00	; 0
	.db #0x00	; 0
	.db #0x00	; 0
	.db #0x00	; 0
	.db #0x00	; 0
	.db #0x00	; 0
	.db #0x00	; 0
	.db #0x00	; 0
	.db #0x00	; 0
	.db #0x00	; 0
	.db #0x00	; 0
	.db #0x00	; 0
	.db #0x00	; 0
	.db #0x00	; 0
	.db #0x00	; 0
	.db #0x00	; 0
	.db #0x00	; 0
	.db #0x00	; 0
	.db #0x00	; 0
	.db #0x00	; 0
	.db #0x00	; 0
	.db #0x00	; 0
	.db #0x00	; 0
	.db #0x00	; 0
	.db #0x00	; 0
	.db #0x00	; 0
	.db #0x00	; 0
	.db #0x00	; 0
	.db #0x00	; 0
	.db #0x00	; 0
	.db #0x00	; 0
	.db #0x00	; 0
	.db #0x00	; 0
	.db #0x00	; 0
	.db #0x00	; 0
	.db #0x00	; 0
	.db #0x00	; 0
	.db #0x00	; 0
	.db #0x00	; 0
	.db #0x00	; 0
	.db #0x00	; 0
	.db #0x00	; 0
	.db #0x00	; 0
	.db #0x00	; 0
	.db #0x00	; 0
	.db #0x00	; 0
	.db #0x00	; 0
	.db #0x00	; 0
	.db #0x00	; 0
	.db #0x00	; 0
	.db #0x00	; 0
	.db #0x00	; 0
	.db #0x00	; 0
	.db #0x00	; 0
	.db #0x00	; 0
	.db #0x00	; 0
	.db #0x00	; 0
	.db #0x00	; 0
	.db #0x00	; 0
	.db #0x00	; 0
	.db #0x00	; 0
	.db #0x00	; 0
	.db #0x00	; 0
	.db #0x00	; 0
	.db #0x00	; 0
	.db #0x00	; 0
	.db #0x00	; 0
	.db #0x00	; 0
	.db #0x00	; 0
	.db #0x00	; 0
	.db #0x00	; 0
	.db #0x00	; 0
	.db #0x00	; 0
	.db #0x00	; 0
	.db #0x00	; 0
	.db #0x00	; 0
	.db #0x00	; 0
	.db #0x00	; 0
	.db #0x00	; 0
	.db #0x00	; 0
	.db #0x00	; 0
	.db #0x00	; 0
	.db #0x00	; 0
	.db #0x00	; 0
	.db #0x00	; 0
	.db #0x00	; 0
	.db #0x00	; 0
	.db #0x00	; 0
	.db #0x00	; 0
	.db #0x00	; 0
	.db #0x00	; 0
	.db #0x00	; 0
	.db #0x00	; 0
	.db #0x00	; 0
	.db #0x00	; 0
	.db #0x00	; 0
	.db #0x00	; 0
	.db #0x00	; 0
	.db #0x00	; 0
	.db #0x00	; 0
	.db #0x00	; 0
	.db #0x00	; 0
	.db #0x00	; 0
	.db #0x00	; 0
	.db #0x00	; 0
	.db #0x00	; 0
	.db #0x00	; 0
	.db #0x00	; 0
	.db #0x00	; 0
	.db #0x00	; 0
	.db #0x00	; 0
	.db #0x00	; 0
	.db #0x00	; 0
	.db #0x00	; 0
	.db #0x00	; 0
	.db #0x00	; 0
	.db #0x00	; 0
	.db #0x00	; 0
	.db #0x00	; 0
	.db #0x00	; 0
	.db #0x00	; 0
	.db #0x00	; 0
	.db #0x00	; 0
	.db #0x00	; 0
	.db #0x00	; 0
	.db #0x00	; 0
	.db #0x00	; 0
	.db #0x00	; 0
	.db #0x00	; 0
	.db #0x00	; 0
	.db #0x00	; 0
	.db #0x00	; 0
	.db #0x00	; 0
	.db #0x00	; 0
	.db #0x00	; 0
	.db #0x00	; 0
	.db #0x00	; 0
	.db #0x00	; 0
	.db #0x00	; 0
	.db #0x00	; 0
	.db #0x00	; 0
	.db #0x00	; 0
	.db #0x00	; 0
	.db #0x00	; 0
	.db #0x00	; 0
	.db #0x00	; 0
	.db #0x00	; 0
	.db #0x00	; 0
	.db #0x00	; 0
	.db #0x00	; 0
	.db #0x00	; 0
	.db #0x3c	; 60
	.db #0x3c	; 60
	.db #0x3c	; 60
	.db #0x78	; 120	'x'
	.db #0x78	; 120	'x'
	.db #0x78	; 120	'x'
	.db #0x78	; 120	'x'
	.db #0x78	; 120	'x'
	.db #0x07	; 7
	.db #0x00	; 0
	.db #0x00	; 0
	.db #0x7f	; 127
	.db #0x7f	; 127
	.db #0x7f	; 127
	.db #0x0f	; 15
	.db #0x0e	; 14
	.db #0x9e	; 158
	.db #0x1e	; 30
	.db #0x1e	; 30
	.db #0x1f	; 31
	.db #0x1f	; 31
	.db #0x1f	; 31
	.db #0x3c	; 60
	.db #0x3c	; 60
	.db #0x07	; 7
	.db #0x07	; 7
	.db #0x0f	; 15
	.db #0xfe	; 254
	.db #0xfc	; 252
	.db #0xf8	; 248
	.db #0x78	; 120	'x'
	.db #0x3c	; 60
	.db #0x9e	; 158
	.db #0x9e	; 158
	.db #0x1f	; 31
	.db #0x1f	; 31
	.db #0x1f	; 31
	.db #0x1c	; 28
	.db #0x3c	; 60
	.db #0x3c	; 60
	.db #0x00	; 0
	.db #0x00	; 0
	.db #0xfc	; 252
	.db #0xfc	; 252
	.db #0xfc	; 252
	.db #0x00	; 0
	.db #0x00	; 0
	.db #0x00	; 0
	.db #0x78	; 120	'x'
	.db #0x78	; 120	'x'
	.db #0x7f	; 127
	.db #0x7f	; 127
	.db #0x7f	; 127
	.db #0x70	; 112	'p'
	.db #0xf0	; 240
	.db #0xf0	; 240
	.db #0x01	; 1
	.db #0x01	; 1
	.db #0xf1	; 241
	.db #0xf1	; 241
	.db #0xf1	; 241
	.db #0x01	; 1
	.db #0x03	; 3
	.db #0x03	; 3
	.db #0xfc	; 252
	.db #0xfe	; 254
	.db #0xee	; 238
	.db #0xef	; 239
	.db #0xe7	; 231
	.db #0xc7	; 199
	.db #0xc7	; 199
	.db #0xc3	; 195
	.db #0x3c	; 60
	.db #0x3c	; 60
	.db #0x3c	; 60
	.db #0x3c	; 60
	.db #0x38	; 56	'8'
	.db #0xf8	; 248
	.db #0xf8	; 248
	.db #0xf8	; 248
	.db #0x00	; 0
	.db #0x00	; 0
	.db #0x00	; 0
	.db #0x00	; 0
	.db #0x00	; 0
	.db #0x00	; 0
	.db #0x00	; 0
	.db #0x00	; 0
	.db #0x00	; 0
	.db #0x00	; 0
	.db #0x00	; 0
	.db #0x00	; 0
	.db #0x00	; 0
	.db #0x00	; 0
	.db #0x00	; 0
	.db #0x00	; 0
	.db #0x00	; 0
	.db #0x00	; 0
	.db #0x00	; 0
	.db #0x00	; 0
	.db #0x00	; 0
	.db #0x00	; 0
	.db #0x00	; 0
	.db #0x00	; 0
	.db #0x00	; 0
	.db #0x00	; 0
	.db #0x00	; 0
	.db #0x00	; 0
	.db #0x00	; 0
	.db #0x00	; 0
	.db #0x00	; 0
	.db #0x00	; 0
	.db #0x00	; 0
	.db #0x00	; 0
	.db #0x00	; 0
	.db #0x00	; 0
	.db #0x00	; 0
	.db #0x00	; 0
	.db #0x00	; 0
	.db #0x00	; 0
	.db #0x00	; 0
	.db #0x00	; 0
	.db #0x00	; 0
	.db #0x00	; 0
	.db #0x00	; 0
	.db #0x00	; 0
	.db #0x00	; 0
	.db #0x00	; 0
	.db #0x00	; 0
	.db #0x00	; 0
	.db #0x00	; 0
	.db #0x00	; 0
	.db #0x00	; 0
	.db #0x00	; 0
	.db #0x00	; 0
	.db #0x00	; 0
	.db #0x00	; 0
	.db #0x00	; 0
	.db #0x00	; 0
	.db #0x00	; 0
	.db #0x00	; 0
	.db #0x00	; 0
	.db #0x00	; 0
	.db #0x00	; 0
	.db #0x00	; 0
	.db #0x00	; 0
	.db #0x00	; 0
	.db #0x00	; 0
	.db #0x00	; 0
	.db #0x00	; 0
	.db #0x00	; 0
	.db #0x00	; 0
	.db #0x00	; 0
	.db #0x00	; 0
	.db #0x00	; 0
	.db #0x00	; 0
	.db #0x00	; 0
	.db #0x00	; 0
	.db #0x00	; 0
	.db #0x00	; 0
	.db #0x00	; 0
	.db #0x00	; 0
	.db #0x00	; 0
	.db #0x00	; 0
	.db #0x00	; 0
	.db #0x00	; 0
	.db #0x00	; 0
	.db #0x00	; 0
	.db #0x00	; 0
	.db #0x00	; 0
	.db #0x00	; 0
	.db #0x00	; 0
	.db #0x00	; 0
	.db #0x00	; 0
	.db #0x00	; 0
	.db #0x00	; 0
	.db #0x00	; 0
	.db #0x00	; 0
	.db #0x00	; 0
	.db #0x00	; 0
	.db #0x00	; 0
	.db #0x00	; 0
	.db #0x00	; 0
	.db #0x00	; 0
	.db #0x00	; 0
	.db #0x00	; 0
	.db #0x00	; 0
	.db #0x00	; 0
	.db #0x00	; 0
	.db #0x00	; 0
	.db #0x00	; 0
	.db #0x00	; 0
	.db #0x00	; 0
	.db #0x00	; 0
	.db #0x00	; 0
	.db #0x00	; 0
	.db #0x00	; 0
	.db #0x00	; 0
	.db #0x00	; 0
	.db #0x00	; 0
	.db #0x00	; 0
	.db #0x00	; 0
	.db #0x00	; 0
	.db #0x00	; 0
	.db #0x00	; 0
	.db #0x00	; 0
	.db #0x00	; 0
	.db #0x00	; 0
	.db #0x00	; 0
	.db #0x00	; 0
	.db #0x00	; 0
	.db #0x00	; 0
	.db #0x00	; 0
	.db #0x00	; 0
	.db #0x00	; 0
	.db #0x00	; 0
	.db #0x00	; 0
	.db #0x00	; 0
	.db #0x00	; 0
	.db #0x00	; 0
	.db #0x00	; 0
	.db #0x00	; 0
	.db #0x00	; 0
	.db #0x00	; 0
	.db #0x00	; 0
	.db #0x00	; 0
	.db #0x00	; 0
	.db #0x00	; 0
	.db #0x00	; 0
	.db #0x00	; 0
	.db #0x00	; 0
	.db #0x00	; 0
	.db #0x00	; 0
	.db #0x00	; 0
	.db #0x00	; 0
	.db #0x00	; 0
	.db #0x00	; 0
	.db #0x00	; 0
	.db #0x00	; 0
	.db #0x00	; 0
	.db #0x00	; 0
	.db #0x00	; 0
	.db #0x00	; 0
	.db #0x00	; 0
	.db #0x00	; 0
	.db #0x00	; 0
	.db #0x00	; 0
	.db #0x00	; 0
	.db #0x00	; 0
	.db #0x00	; 0
	.db #0x00	; 0
	.db #0x00	; 0
	.db #0x00	; 0
	.db #0x00	; 0
	.db #0x00	; 0
	.db #0x00	; 0
	.db #0xc7	; 199
	.db #0xc3	; 195
	.db #0xe0	; 224
	.db #0xe0	; 224
	.db #0xf8	; 248
	.db #0x00	; 0
	.db #0x00	; 0
	.db #0x00	; 0
	.db #0xe1	; 225
	.db #0xe1	; 225
	.db #0x01	; 1
	.db #0x03	; 3
	.db #0x1f	; 31
	.db #0x00	; 0
	.db #0x00	; 0
	.db #0x00	; 0
	.db #0xc3	; 195
	.db #0xc3	; 195
	.db #0xc7	; 199
	.db #0xc7	; 199
	.db #0x87	; 135
	.db #0x00	; 0
	.db #0x00	; 0
	.db #0x00	; 0
	.db #0xc3	; 195
	.db #0xc3	; 195
	.db #0xe1	; 225
	.db #0xe1	; 225
	.db #0xe1	; 225
	.db #0x00	; 0
	.db #0x00	; 0
	.db #0x00	; 0
	.db #0xc3	; 195
	.db #0xc3	; 195
	.db #0xc0	; 192
	.db #0xc0	; 192
	.db #0x80	; 128
	.db #0x00	; 0
	.db #0x00	; 0
	.db #0x00	; 0
	.db #0x00	; 0
	.db #0x00	; 0
	.db #0x03	; 3
	.db #0x03	; 3
	.db #0x06	; 6
	.db #0x00	; 0
	.db #0x00	; 0
	.db #0x00	; 0
	.db #0x0f	; 15
	.db #0x0f	; 15
	.db #0x00	; 0
	.db #0x00	; 0
	.db #0x00	; 0
	.db #0x00	; 0
	.db #0x00	; 0
	.db #0x00	; 0
	.db #0xfc	; 252
	.db #0xfc	; 252
	.db #0x0c	; 12
	.db #0x0c	; 12
	.db #0x18	; 24
	.db #0x00	; 0
	.db #0x00	; 0
	.db #0x00	; 0
	.db #0x3c	; 60
	.db #0x3e	; 62
	.db #0x7e	; 126
	.db #0x7f	; 127
	.db #0x7f	; 127
	.db #0x00	; 0
	.db #0x00	; 0
	.db #0x00	; 0
	.db #0x07	; 7
	.db #0x07	; 7
	.db #0x0f	; 15
	.db #0x0f	; 15
	.db #0x0f	; 15
	.db #0x00	; 0
	.db #0x00	; 0
	.db #0x00	; 0
	.db #0x00	; 0
	.db #0x00	; 0
	.db #0x00	; 0
	.db #0x00	; 0
	.db #0x00	; 0
	.db #0x00	; 0
	.db #0x00	; 0
	.db #0x00	; 0
	.db #0x00	; 0
	.db #0x00	; 0
	.db #0x00	; 0
	.db #0x00	; 0
	.db #0x00	; 0
	.db #0x00	; 0
	.db #0x00	; 0
	.db #0x00	; 0
	.db #0x00	; 0
	.db #0x00	; 0
	.db #0x00	; 0
	.db #0x00	; 0
	.db #0x00	; 0
	.db #0x00	; 0
	.db #0x00	; 0
	.db #0x00	; 0
	.db #0x00	; 0
	.db #0x00	; 0
	.db #0x00	; 0
	.db #0x00	; 0
	.db #0x00	; 0
	.db #0x00	; 0
	.db #0x00	; 0
	.db #0x00	; 0
	.db #0x00	; 0
	.db #0x00	; 0
	.db #0x00	; 0
	.db #0x00	; 0
	.db #0x00	; 0
	.db #0x00	; 0
	.db #0x00	; 0
	.db #0x00	; 0
	.db #0x00	; 0
	.db #0x00	; 0
	.db #0x00	; 0
	.db #0x00	; 0
	.db #0x00	; 0
	.db #0x00	; 0
	.db #0x00	; 0
	.db #0x00	; 0
	.db #0x00	; 0
	.db #0x00	; 0
	.db #0x00	; 0
	.db #0x00	; 0
	.db #0x00	; 0
	.db #0x00	; 0
	.db #0x00	; 0
	.db #0x00	; 0
	.db #0x00	; 0
	.db #0x00	; 0
	.db #0x00	; 0
	.db #0x00	; 0
	.db #0x00	; 0
	.db #0x00	; 0
	.db #0x00	; 0
	.db #0x00	; 0
	.db #0x00	; 0
	.db #0x00	; 0
	.db #0x00	; 0
	.db #0x00	; 0
	.db #0x00	; 0
	.db #0x00	; 0
	.db #0x00	; 0
	.db #0x00	; 0
	.db #0x00	; 0
	.db #0x00	; 0
	.db #0x00	; 0
	.db #0x00	; 0
	.db #0x00	; 0
	.db #0x00	; 0
	.db #0x00	; 0
	.db #0x00	; 0
	.db #0x00	; 0
	.db #0x00	; 0
	.db #0x00	; 0
	.db #0x00	; 0
	.db #0x00	; 0
	.db #0x00	; 0
	.db #0x00	; 0
	.db #0x00	; 0
	.db #0x00	; 0
	.db #0x00	; 0
	.db #0x00	; 0
	.db #0x00	; 0
	.db #0x00	; 0
	.db #0x00	; 0
	.db #0x00	; 0
	.db #0x00	; 0
	.db #0x00	; 0
	.db #0x00	; 0
	.db #0x00	; 0
	.db #0x00	; 0
	.db #0x00	; 0
	.db #0x00	; 0
	.db #0x00	; 0
	.db #0x00	; 0
	.db #0x00	; 0
	.db #0x00	; 0
	.db #0x00	; 0
	.db #0x00	; 0
	.db #0x00	; 0
	.db #0x00	; 0
	.db #0x00	; 0
	.db #0x00	; 0
	.db #0x00	; 0
	.db #0x00	; 0
	.db #0x00	; 0
	.db #0x00	; 0
	.db #0x00	; 0
	.db #0x00	; 0
	.db #0x00	; 0
	.db #0x00	; 0
	.db #0x00	; 0
	.db #0x00	; 0
	.db #0x00	; 0
	.db #0x00	; 0
	.db #0x00	; 0
	.db #0x00	; 0
	.db #0x00	; 0
	.db #0x00	; 0
	.db #0x00	; 0
	.db #0x00	; 0
	.db #0x00	; 0
	.db #0x00	; 0
	.db #0x00	; 0
	.db #0x00	; 0
	.db #0x00	; 0
	.db #0x00	; 0
	.db #0x00	; 0
	.db #0x00	; 0
	.db #0x00	; 0
	.db #0x00	; 0
	.db #0x00	; 0
	.db #0x00	; 0
	.db #0x00	; 0
	.db #0x00	; 0
	.db #0x00	; 0
	.db #0x00	; 0
	.db #0x00	; 0
	.db #0x00	; 0
	.db #0x00	; 0
	.db #0x00	; 0
	.db #0x00	; 0
	.db #0x00	; 0
	.db #0x00	; 0
	.db #0x00	; 0
	.db #0x00	; 0
	.db #0x00	; 0
	.db #0x00	; 0
	.db #0x00	; 0
	.db #0x00	; 0
	.db #0x00	; 0
	.db #0x00	; 0
	.db #0x00	; 0
	.db #0x00	; 0
	.db #0x00	; 0
	.db #0x00	; 0
	.db #0x00	; 0
	.db #0x00	; 0
	.db #0x00	; 0
	.db #0x00	; 0
	.db #0x00	; 0
	.db #0x00	; 0
	.db #0x00	; 0
	.db #0x00	; 0
	.db #0x00	; 0
	.db #0x00	; 0
	.db #0x00	; 0
	.db #0x38	; 56	'8'
	.db #0x44	; 68	'D'
	.db #0x9a	; 154
	.db #0xa2	; 162
	.db #0x9a	; 154
	.db #0x44	; 68	'D'
	.db #0x38	; 56	'8'
	.db #0x00	; 0
	.db #0x00	; 0
	.db #0x00	; 0
	.db #0x00	; 0
	.db #0x00	; 0
	.db #0x00	; 0
	.db #0x00	; 0
	.db #0x00	; 0
	.db #0x00	; 0
	.db #0x18	; 24
	.db #0x3c	; 60
	.db #0x3c	; 60
	.db #0x18	; 24
	.db #0x18	; 24
	.db #0x00	; 0
	.db #0x18	; 24
	.db #0x00	; 0
	.db #0x36	; 54	'6'
	.db #0x36	; 54	'6'
	.db #0x36	; 54	'6'
	.db #0x00	; 0
	.db #0x00	; 0
	.db #0x00	; 0
	.db #0x00	; 0
	.db #0x00	; 0
	.db #0x36	; 54	'6'
	.db #0x36	; 54	'6'
	.db #0x7f	; 127
	.db #0x36	; 54	'6'
	.db #0x7f	; 127
	.db #0x36	; 54	'6'
	.db #0x36	; 54	'6'
	.db #0x00	; 0
	.db #0x18	; 24
	.db #0x3e	; 62
	.db #0x60	; 96
	.db #0x3c	; 60
	.db #0x06	; 6
	.db #0x7c	; 124
	.db #0x18	; 24
	.db #0x00	; 0
	.db #0x60	; 96
	.db #0x66	; 102	'f'
	.db #0x0c	; 12
	.db #0x18	; 24
	.db #0x30	; 48	'0'
	.db #0x66	; 102	'f'
	.db #0x06	; 6
	.db #0x00	; 0
	.db #0x1c	; 28
	.db #0x36	; 54	'6'
	.db #0x1c	; 28
	.db #0x3b	; 59
	.db #0x6e	; 110	'n'
	.db #0x66	; 102	'f'
	.db #0x3b	; 59
	.db #0x00	; 0
	.db #0x1c	; 28
	.db #0x18	; 24
	.db #0x30	; 48	'0'
	.db #0x00	; 0
	.db #0x00	; 0
	.db #0x00	; 0
	.db #0x00	; 0
	.db #0x00	; 0
	.db #0x0c	; 12
	.db #0x18	; 24
	.db #0x30	; 48	'0'
	.db #0x30	; 48	'0'
	.db #0x30	; 48	'0'
	.db #0x18	; 24
	.db #0x0c	; 12
	.db #0x00	; 0
	.db #0x30	; 48	'0'
	.db #0x18	; 24
	.db #0x0c	; 12
	.db #0x0c	; 12
	.db #0x0c	; 12
	.db #0x18	; 24
	.db #0x30	; 48	'0'
	.db #0x00	; 0
	.db #0x00	; 0
	.db #0x66	; 102	'f'
	.db #0x3c	; 60
	.db #0x18	; 24
	.db #0x3c	; 60
	.db #0x66	; 102	'f'
	.db #0x00	; 0
	.db #0x00	; 0
	.db #0x00	; 0
	.db #0x18	; 24
	.db #0x18	; 24
	.db #0x7e	; 126
	.db #0x18	; 24
	.db #0x18	; 24
	.db #0x00	; 0
	.db #0x00	; 0
	.db #0x00	; 0
	.db #0x00	; 0
	.db #0x00	; 0
	.db #0x00	; 0
	.db #0x00	; 0
	.db #0x18	; 24
	.db #0x18	; 24
	.db #0x30	; 48	'0'
	.db #0x00	; 0
	.db #0x00	; 0
	.db #0x00	; 0
	.db #0x7e	; 126
	.db #0x00	; 0
	.db #0x00	; 0
	.db #0x00	; 0
	.db #0x00	; 0
	.db #0x00	; 0
	.db #0x00	; 0
	.db #0x00	; 0
	.db #0x00	; 0
	.db #0x00	; 0
	.db #0x18	; 24
	.db #0x18	; 24
	.db #0x00	; 0
	.db #0x00	; 0
	.db #0x06	; 6
	.db #0x0c	; 12
	.db #0x18	; 24
	.db #0x30	; 48	'0'
	.db #0x60	; 96
	.db #0x00	; 0
	.db #0x00	; 0
	.db #0x3c	; 60
	.db #0x66	; 102	'f'
	.db #0x6e	; 110	'n'
	.db #0x7e	; 126
	.db #0x76	; 118	'v'
	.db #0x66	; 102	'f'
	.db #0x3c	; 60
	.db #0x00	; 0
	.db #0x18	; 24
	.db #0x38	; 56	'8'
	.db #0x18	; 24
	.db #0x18	; 24
	.db #0x18	; 24
	.db #0x18	; 24
	.db #0x7e	; 126
	.db #0x00	; 0
	.db #0x3c	; 60
	.db #0x66	; 102	'f'
	.db #0x06	; 6
	.db #0x1c	; 28
	.db #0x30	; 48	'0'
	.db #0x66	; 102	'f'
	.db #0x7e	; 126
	.db #0x00	; 0
	.db #0x3c	; 60
	.db #0x66	; 102	'f'
	.db #0x06	; 6
	.db #0x1c	; 28
	.db #0x06	; 6
	.db #0x66	; 102	'f'
	.db #0x3c	; 60
	.db #0x00	; 0
	.db #0x0e	; 14
	.db #0x1e	; 30
	.db #0x36	; 54	'6'
	.db #0x66	; 102	'f'
	.db #0x7f	; 127
	.db #0x06	; 6
	.db #0x0f	; 15
	.db #0x00	; 0
	.db #0x7e	; 126
	.db #0x60	; 96
	.db #0x60	; 96
	.db #0x7c	; 124
	.db #0x06	; 6
	.db #0x66	; 102	'f'
	.db #0x3c	; 60
	.db #0x00	; 0
	.db #0x1c	; 28
	.db #0x30	; 48	'0'
	.db #0x60	; 96
	.db #0x7c	; 124
	.db #0x66	; 102	'f'
	.db #0x66	; 102	'f'
	.db #0x3c	; 60
	.db #0x00	; 0
	.db #0x7e	; 126
	.db #0x66	; 102	'f'
	.db #0x06	; 6
	.db #0x0c	; 12
	.db #0x18	; 24
	.db #0x18	; 24
	.db #0x18	; 24
	.db #0x00	; 0
	.db #0x3c	; 60
	.db #0x66	; 102	'f'
	.db #0x66	; 102	'f'
	.db #0x3c	; 60
	.db #0x66	; 102	'f'
	.db #0x66	; 102	'f'
	.db #0x3c	; 60
	.db #0x00	; 0
	.db #0x3c	; 60
	.db #0x66	; 102	'f'
	.db #0x66	; 102	'f'
	.db #0x3e	; 62
	.db #0x06	; 6
	.db #0x0c	; 12
	.db #0x38	; 56	'8'
	.db #0x00	; 0
	.db #0x00	; 0
	.db #0x00	; 0
	.db #0x18	; 24
	.db #0x18	; 24
	.db #0x00	; 0
	.db #0x18	; 24
	.db #0x18	; 24
	.db #0x00	; 0
	.db #0x00	; 0
	.db #0x00	; 0
	.db #0x18	; 24
	.db #0x18	; 24
	.db #0x00	; 0
	.db #0x18	; 24
	.db #0x18	; 24
	.db #0x30	; 48	'0'
	.db #0x0c	; 12
	.db #0x18	; 24
	.db #0x30	; 48	'0'
	.db #0x60	; 96
	.db #0x30	; 48	'0'
	.db #0x18	; 24
	.db #0x0c	; 12
	.db #0x00	; 0
	.db #0x00	; 0
	.db #0x00	; 0
	.db #0x7e	; 126
	.db #0x00	; 0
	.db #0x7e	; 126
	.db #0x00	; 0
	.db #0x00	; 0
	.db #0x00	; 0
	.db #0x30	; 48	'0'
	.db #0x18	; 24
	.db #0x0c	; 12
	.db #0x06	; 6
	.db #0x0c	; 12
	.db #0x18	; 24
	.db #0x30	; 48	'0'
	.db #0x00	; 0
	.db #0x3c	; 60
	.db #0x66	; 102	'f'
	.db #0x06	; 6
	.db #0x0c	; 12
	.db #0x18	; 24
	.db #0x00	; 0
	.db #0x18	; 24
	.db #0x00	; 0
	.db #0x3c	; 60
	.db #0x66	; 102	'f'
	.db #0x6e	; 110	'n'
	.db #0x6a	; 106	'j'
	.db #0x6e	; 110	'n'
	.db #0x60	; 96
	.db #0x3c	; 60
	.db #0x00	; 0
	.db #0x3c	; 60
	.db #0x66	; 102	'f'
	.db #0x66	; 102	'f'
	.db #0x7e	; 126
	.db #0x66	; 102	'f'
	.db #0x66	; 102	'f'
	.db #0x66	; 102	'f'
	.db #0x00	; 0
	.db #0x7c	; 124
	.db #0x66	; 102	'f'
	.db #0x66	; 102	'f'
	.db #0x7c	; 124
	.db #0x66	; 102	'f'
	.db #0x66	; 102	'f'
	.db #0x7c	; 124
	.db #0x00	; 0
	.db #0x3c	; 60
	.db #0x66	; 102	'f'
	.db #0x60	; 96
	.db #0x60	; 96
	.db #0x60	; 96
	.db #0x66	; 102	'f'
	.db #0x3c	; 60
	.db #0x00	; 0
	.db #0x78	; 120	'x'
	.db #0x6c	; 108	'l'
	.db #0x66	; 102	'f'
	.db #0x66	; 102	'f'
	.db #0x66	; 102	'f'
	.db #0x6c	; 108	'l'
	.db #0x78	; 120	'x'
	.db #0x00	; 0
	.db #0x7e	; 126
	.db #0x60	; 96
	.db #0x60	; 96
	.db #0x7c	; 124
	.db #0x60	; 96
	.db #0x60	; 96
	.db #0x7e	; 126
	.db #0x00	; 0
	.db #0x7e	; 126
	.db #0x60	; 96
	.db #0x60	; 96
	.db #0x7c	; 124
	.db #0x60	; 96
	.db #0x60	; 96
	.db #0x60	; 96
	.db #0x00	; 0
	.db #0x3c	; 60
	.db #0x66	; 102	'f'
	.db #0x60	; 96
	.db #0x6e	; 110	'n'
	.db #0x66	; 102	'f'
	.db #0x66	; 102	'f'
	.db #0x3c	; 60
	.db #0x00	; 0
	.db #0x66	; 102	'f'
	.db #0x66	; 102	'f'
	.db #0x66	; 102	'f'
	.db #0x7e	; 126
	.db #0x66	; 102	'f'
	.db #0x66	; 102	'f'
	.db #0x66	; 102	'f'
	.db #0x00	; 0
	.db #0x3c	; 60
	.db #0x18	; 24
	.db #0x18	; 24
	.db #0x18	; 24
	.db #0x18	; 24
	.db #0x18	; 24
	.db #0x3c	; 60
	.db #0x00	; 0
	.db #0x0e	; 14
	.db #0x06	; 6
	.db #0x06	; 6
	.db #0x06	; 6
	.db #0x66	; 102	'f'
	.db #0x66	; 102	'f'
	.db #0x3c	; 60
	.db #0x00	; 0
	.db #0x66	; 102	'f'
	.db #0x66	; 102	'f'
	.db #0x6c	; 108	'l'
	.db #0x78	; 120	'x'
	.db #0x6c	; 108	'l'
	.db #0x66	; 102	'f'
	.db #0x66	; 102	'f'
	.db #0x00	; 0
	.db #0x60	; 96
	.db #0x60	; 96
	.db #0x60	; 96
	.db #0x60	; 96
	.db #0x60	; 96
	.db #0x60	; 96
	.db #0x7e	; 126
	.db #0x00	; 0
	.db #0x63	; 99	'c'
	.db #0x77	; 119	'w'
	.db #0x7f	; 127
	.db #0x7f	; 127
	.db #0x6b	; 107	'k'
	.db #0x63	; 99	'c'
	.db #0x63	; 99	'c'
	.db #0x00	; 0
	.db #0x66	; 102	'f'
	.db #0x76	; 118	'v'
	.db #0x7e	; 126
	.db #0x7e	; 126
	.db #0x6e	; 110	'n'
	.db #0x66	; 102	'f'
	.db #0x66	; 102	'f'
	.db #0x00	; 0
	.db #0x3c	; 60
	.db #0x66	; 102	'f'
	.db #0x66	; 102	'f'
	.db #0x66	; 102	'f'
	.db #0x66	; 102	'f'
	.db #0x66	; 102	'f'
	.db #0x3c	; 60
	.db #0x00	; 0
	.db #0x7c	; 124
	.db #0x66	; 102	'f'
	.db #0x66	; 102	'f'
	.db #0x7c	; 124
	.db #0x60	; 96
	.db #0x60	; 96
	.db #0x60	; 96
	.db #0x00	; 0
	.db #0x3c	; 60
	.db #0x66	; 102	'f'
	.db #0x66	; 102	'f'
	.db #0x66	; 102	'f'
	.db #0x6e	; 110	'n'
	.db #0x3c	; 60
	.db #0x0e	; 14
	.db #0x00	; 0
	.db #0x7c	; 124
	.db #0x66	; 102	'f'
	.db #0x66	; 102	'f'
	.db #0x7c	; 124
	.db #0x6c	; 108	'l'
	.db #0x66	; 102	'f'
	.db #0x66	; 102	'f'
	.db #0x00	; 0
	.db #0x3c	; 60
	.db #0x66	; 102	'f'
	.db #0x60	; 96
	.db #0x3c	; 60
	.db #0x06	; 6
	.db #0x66	; 102	'f'
	.db #0x3c	; 60
	.db #0x00	; 0
	.db #0x7e	; 126
	.db #0x18	; 24
	.db #0x18	; 24
	.db #0x18	; 24
	.db #0x18	; 24
	.db #0x18	; 24
	.db #0x18	; 24
	.db #0x00	; 0
	.db #0x66	; 102	'f'
	.db #0x66	; 102	'f'
	.db #0x66	; 102	'f'
	.db #0x66	; 102	'f'
	.db #0x66	; 102	'f'
	.db #0x66	; 102	'f'
	.db #0x3c	; 60
	.db #0x00	; 0
	.db #0x66	; 102	'f'
	.db #0x66	; 102	'f'
	.db #0x66	; 102	'f'
	.db #0x66	; 102	'f'
	.db #0x66	; 102	'f'
	.db #0x3c	; 60
	.db #0x18	; 24
	.db #0x00	; 0
	.db #0x63	; 99	'c'
	.db #0x63	; 99	'c'
	.db #0x63	; 99	'c'
	.db #0x6b	; 107	'k'
	.db #0x7f	; 127
	.db #0x77	; 119	'w'
	.db #0x63	; 99	'c'
	.db #0x00	; 0
	.db #0x66	; 102	'f'
	.db #0x66	; 102	'f'
	.db #0x3c	; 60
	.db #0x18	; 24
	.db #0x3c	; 60
	.db #0x66	; 102	'f'
	.db #0x66	; 102	'f'
	.db #0x00	; 0
	.db #0x66	; 102	'f'
	.db #0x66	; 102	'f'
	.db #0x66	; 102	'f'
	.db #0x3c	; 60
	.db #0x18	; 24
	.db #0x18	; 24
	.db #0x18	; 24
	.db #0x00	; 0
	.db #0x7e	; 126
	.db #0x06	; 6
	.db #0x0c	; 12
	.db #0x18	; 24
	.db #0x30	; 48	'0'
	.db #0x60	; 96
	.db #0x7e	; 126
	.db #0x00	; 0
	.db #0x3e	; 62
	.db #0x30	; 48	'0'
	.db #0x30	; 48	'0'
	.db #0x30	; 48	'0'
	.db #0x30	; 48	'0'
	.db #0x30	; 48	'0'
	.db #0x3e	; 62
	.db #0x00	; 0
	.db #0x00	; 0
	.db #0x60	; 96
	.db #0x30	; 48	'0'
	.db #0x18	; 24
	.db #0x0c	; 12
	.db #0x06	; 6
	.db #0x00	; 0
	.db #0x00	; 0
	.db #0x3e	; 62
	.db #0x06	; 6
	.db #0x06	; 6
	.db #0x06	; 6
	.db #0x06	; 6
	.db #0x06	; 6
	.db #0x3e	; 62
	.db #0x00	; 0
	.db #0x08	; 8
	.db #0x1c	; 28
	.db #0x36	; 54	'6'
	.db #0x63	; 99	'c'
	.db #0x00	; 0
	.db #0x00	; 0
	.db #0x00	; 0
	.db #0x00	; 0
	.db #0x00	; 0
	.db #0x55	; 85	'U'
	.db #0x18	; 24
	.db #0x7e	; 126
	.db #0x10	; 16
	.db #0x38	; 56	'8'
	.db #0xef	; 239
	.db #0xfc	; 252
	.db #0x00	; 0
	.db #0x6c	; 108	'l'
	.db #0xfe	; 254
	.db #0xfe	; 254
	.db #0x7c	; 124
	.db #0x38	; 56	'8'
	.db #0x10	; 16
	.db #0x00	; 0
	.db #0x00	; 0
	.db #0x00	; 0
	.db #0x00	; 0
	.db #0x00	; 0
	.db #0x00	; 0
	.db #0x00	; 0
	.db #0x00	; 0
	.db #0x00	; 0
	.db #0x00	; 0
	.db #0x00	; 0
	.db #0x00	; 0
	.db #0x00	; 0
	.db #0x00	; 0
	.db #0x00	; 0
	.db #0x00	; 0
	.db #0x00	; 0
	.db #0x00	; 0
	.db #0x00	; 0
	.db #0x00	; 0
	.db #0x00	; 0
	.db #0x00	; 0
	.db #0x00	; 0
	.db #0x00	; 0
	.db #0x00	; 0
	.db #0x00	; 0
	.db #0x00	; 0
	.db #0x00	; 0
	.db #0x00	; 0
	.db #0x00	; 0
	.db #0x00	; 0
	.db #0x00	; 0
	.db #0x00	; 0
	.db #0x00	; 0
	.db #0x00	; 0
	.db #0x00	; 0
	.db #0x00	; 0
	.db #0x00	; 0
	.db #0x00	; 0
	.db #0x00	; 0
	.db #0x00	; 0
	.db #0x00	; 0
	.db #0x00	; 0
	.db #0x00	; 0
	.db #0x00	; 0
	.db #0x00	; 0
	.db #0x00	; 0
	.db #0x00	; 0
	.db #0x00	; 0
	.db #0x00	; 0
	.db #0x00	; 0
	.db #0x00	; 0
	.db #0x00	; 0
	.db #0x00	; 0
	.db #0x00	; 0
	.db #0x00	; 0
	.db #0x00	; 0
	.db #0x00	; 0
	.db #0x00	; 0
	.db #0x00	; 0
	.db #0x00	; 0
	.db #0x00	; 0
	.db #0x00	; 0
	.db #0x00	; 0
	.db #0x00	; 0
	.db #0x00	; 0
	.db #0x00	; 0
	.db #0x00	; 0
	.db #0x00	; 0
	.db #0x00	; 0
	.db #0x00	; 0
	.db #0x00	; 0
	.db #0x00	; 0
	.db #0x00	; 0
	.db #0x00	; 0
	.db #0x00	; 0
	.db #0x00	; 0
	.db #0x00	; 0
	.db #0x00	; 0
	.db #0x00	; 0
	.db #0x00	; 0
	.db #0x00	; 0
	.db #0x00	; 0
	.db #0x00	; 0
	.db #0x00	; 0
	.db #0x00	; 0
	.db #0x00	; 0
	.db #0x00	; 0
	.db #0x00	; 0
	.db #0x00	; 0
	.db #0x00	; 0
	.db #0x00	; 0
	.db #0x00	; 0
	.db #0x00	; 0
	.db #0x00	; 0
	.db #0x00	; 0
	.db #0x00	; 0
	.db #0x00	; 0
	.db #0x00	; 0
	.db #0x00	; 0
	.db #0x00	; 0
	.db #0x00	; 0
	.db #0x00	; 0
	.db #0x00	; 0
	.db #0x00	; 0
	.db #0x00	; 0
	.db #0x00	; 0
	.db #0x00	; 0
	.db #0x00	; 0
	.db #0x00	; 0
	.db #0x00	; 0
	.db #0x00	; 0
	.db #0x00	; 0
	.db #0x00	; 0
	.db #0x00	; 0
	.db #0x00	; 0
	.db #0x00	; 0
	.db #0x00	; 0
	.db #0x00	; 0
	.db #0x00	; 0
	.db #0x00	; 0
	.db #0x00	; 0
	.db #0x00	; 0
	.db #0x00	; 0
	.db #0x00	; 0
	.db #0x00	; 0
	.db #0x00	; 0
	.db #0x00	; 0
	.db #0x00	; 0
	.db #0x00	; 0
	.db #0x00	; 0
	.db #0x00	; 0
	.db #0x00	; 0
	.db #0x00	; 0
	.db #0x00	; 0
	.db #0x00	; 0
	.db #0x00	; 0
	.db #0x00	; 0
	.db #0x00	; 0
	.db #0x00	; 0
	.db #0x00	; 0
	.db #0x00	; 0
	.db #0x00	; 0
	.db #0x00	; 0
	.db #0x00	; 0
	.db #0x00	; 0
	.db #0x00	; 0
	.db #0x00	; 0
	.db #0x00	; 0
	.db #0x00	; 0
	.db #0x00	; 0
	.db #0x00	; 0
	.db #0x00	; 0
	.db #0x00	; 0
	.db #0x00	; 0
	.db #0x00	; 0
	.db #0x00	; 0
	.db #0x00	; 0
	.db #0x00	; 0
	.db #0x00	; 0
	.db #0x00	; 0
	.db #0x00	; 0
	.db #0x00	; 0
	.db #0x00	; 0
	.db #0x00	; 0
	.db #0x00	; 0
	.db #0x00	; 0
	.db #0x00	; 0
	.db #0x00	; 0
	.db #0x00	; 0
	.db #0x00	; 0
	.db #0x00	; 0
	.db #0x00	; 0
	.db #0x00	; 0
	.db #0x00	; 0
	.db #0x00	; 0
	.db #0x00	; 0
	.db #0x00	; 0
	.db #0x00	; 0
	.db #0x00	; 0
	.db #0x00	; 0
	.db #0x00	; 0
	.db #0x00	; 0
	.db #0x00	; 0
	.db #0x00	; 0
	.db #0x00	; 0
	.db #0x00	; 0
	.db #0x00	; 0
	.db #0x00	; 0
	.db #0x00	; 0
	.db #0x00	; 0
	.db #0x00	; 0
	.db #0x00	; 0
	.db #0x00	; 0
	.db #0x00	; 0
	.db #0x00	; 0
	.db #0x00	; 0
	.db #0x00	; 0
	.db #0x00	; 0
	.db #0x00	; 0
	.db #0x00	; 0
	.db #0x00	; 0
	.db #0x00	; 0
	.db #0x00	; 0
	.db #0x00	; 0
	.db #0x00	; 0
	.db #0x00	; 0
	.db #0x00	; 0
	.db #0x00	; 0
	.db #0x00	; 0
	.db #0x00	; 0
	.db #0x00	; 0
	.db #0x00	; 0
	.db #0x00	; 0
	.db #0x00	; 0
	.db #0x00	; 0
	.db #0x00	; 0
	.db #0x00	; 0
	.db #0x00	; 0
	.db #0x00	; 0
	.db #0x00	; 0
	.db #0x00	; 0
	.db #0x00	; 0
	.db #0x00	; 0
	.db #0x00	; 0
	.db #0x00	; 0
	.db #0x00	; 0
	.db #0x00	; 0
	.db #0x00	; 0
	.db #0x00	; 0
	.db #0x00	; 0
	.db #0x00	; 0
	.db #0x00	; 0
	.db #0x00	; 0
	.db #0x00	; 0
	.db #0x00	; 0
	.db #0x00	; 0
	.db #0x00	; 0
	.db #0x00	; 0
	.db #0x00	; 0
	.db #0x00	; 0
	.db #0xfc	; 252
	.db #0xfc	; 252
	.db #0xfc	; 252
	.db #0xfc	; 252
	.db #0x38	; 56	'8'
	.db #0x00	; 0
	.db #0x7e	; 126
	.db #0x00	; 0
	.db #0x00	; 0
	.db #0x00	; 0
	.db #0x00	; 0
	.db #0x00	; 0
	.db #0x00	; 0
	.db #0x00	; 0
	.db #0x00	; 0
	.db #0x00	; 0
	.db #0x00	; 0
	.db #0x00	; 0
	.db #0x00	; 0
	.db #0x00	; 0
	.db #0x00	; 0
	.db #0x00	; 0
	.db #0x00	; 0
	.db #0x00	; 0
	.db #0x00	; 0
	.db #0x00	; 0
	.db #0x00	; 0
	.db #0x00	; 0
	.db #0x00	; 0
	.db #0x00	; 0
	.db #0x00	; 0
	.db #0x00	; 0
	.db #0x00	; 0
	.db #0x00	; 0
	.db #0x00	; 0
	.db #0x00	; 0
	.db #0x00	; 0
	.db #0x00	; 0
	.db #0x00	; 0
	.db #0x00	; 0
	.db #0x00	; 0
	.db #0x00	; 0
	.db #0x00	; 0
	.db #0x00	; 0
	.db #0x00	; 0
	.db #0x00	; 0
	.db #0x00	; 0
	.db #0x00	; 0
	.db #0x00	; 0
	.db #0x00	; 0
	.db #0x00	; 0
	.db #0x00	; 0
	.db #0x00	; 0
	.db #0x00	; 0
	.db #0x00	; 0
	.db #0x00	; 0
	.db #0x00	; 0
	.db #0x00	; 0
	.db #0x00	; 0
	.db #0x00	; 0
	.db #0x00	; 0
	.db #0x00	; 0
	.db #0x00	; 0
	.db #0x00	; 0
	.db #0x00	; 0
	.db #0x00	; 0
	.db #0x00	; 0
	.db #0x00	; 0
	.db #0x00	; 0
	.db #0x00	; 0
	.db #0x00	; 0
	.db #0x00	; 0
	.db #0x00	; 0
	.db #0x00	; 0
	.db #0x00	; 0
	.db #0x00	; 0
	.db #0x00	; 0
	.db #0x00	; 0
	.db #0x00	; 0
	.db #0x00	; 0
	.db #0x00	; 0
	.db #0x00	; 0
	.db #0x00	; 0
	.db #0x00	; 0
	.db #0x00	; 0
	.db #0x00	; 0
	.db #0x00	; 0
	.db #0x00	; 0
	.db #0x00	; 0
	.db #0x00	; 0
	.db #0x00	; 0
	.db #0x00	; 0
	.db #0x00	; 0
	.db #0x00	; 0
	.db #0x00	; 0
	.db #0x00	; 0
	.db #0x00	; 0
	.db #0x00	; 0
	.db #0x00	; 0
	.db #0x00	; 0
	.db #0x00	; 0
	.db #0x00	; 0
	.db #0x00	; 0
	.db #0x00	; 0
	.db #0x00	; 0
	.db #0x00	; 0
	.db #0x00	; 0
	.db #0x00	; 0
	.db #0x00	; 0
	.db #0x00	; 0
	.db #0x00	; 0
	.db #0x00	; 0
	.db #0x00	; 0
	.db #0x00	; 0
	.db #0x00	; 0
	.db #0x00	; 0
	.db #0x00	; 0
	.db #0x00	; 0
	.db #0x00	; 0
	.db #0x00	; 0
	.db #0x00	; 0
	.db #0x00	; 0
	.db #0x00	; 0
	.db #0x00	; 0
	.db #0x00	; 0
	.db #0x00	; 0
	.db #0x00	; 0
	.db #0x00	; 0
	.db #0x00	; 0
	.db #0x00	; 0
	.db #0x00	; 0
	.db #0x00	; 0
	.db #0x00	; 0
	.db #0x00	; 0
	.db #0x00	; 0
	.db #0x00	; 0
	.db #0x00	; 0
	.db #0x00	; 0
	.db #0x00	; 0
	.db #0x00	; 0
	.db #0x00	; 0
	.db #0x00	; 0
	.db #0x00	; 0
	.db #0x00	; 0
	.db #0x00	; 0
	.db #0x00	; 0
	.db #0x00	; 0
	.db #0x00	; 0
	.db #0x00	; 0
	.db #0x00	; 0
	.db #0x00	; 0
	.db #0x00	; 0
	.db #0x00	; 0
	.db #0x00	; 0
	.db #0x00	; 0
	.db #0x00	; 0
	.db #0x00	; 0
	.db #0x00	; 0
	.db #0x00	; 0
	.db #0x00	; 0
	.db #0x00	; 0
	.db #0x00	; 0
	.db #0x00	; 0
	.db #0x00	; 0
	.db #0x00	; 0
	.db #0x00	; 0
	.db #0x00	; 0
	.db #0x00	; 0
	.db #0x00	; 0
	.db #0x00	; 0
	.db #0x00	; 0
	.db #0x00	; 0
	.db #0x00	; 0
	.db #0x00	; 0
	.db #0x00	; 0
	.db #0x00	; 0
	.db #0x00	; 0
	.db #0x00	; 0
	.db #0x00	; 0
	.db #0x00	; 0
	.db #0x00	; 0
	.db #0x00	; 0
	.db #0x00	; 0
	.db #0x00	; 0
	.db #0x00	; 0
	.db #0x00	; 0
	.db #0x00	; 0
	.db #0x00	; 0
	.db #0x00	; 0
	.db #0x00	; 0
	.db #0x00	; 0
	.db #0x00	; 0
	.db #0x00	; 0
	.db #0x00	; 0
	.db #0x00	; 0
	.db #0x00	; 0
	.db #0x00	; 0
	.db #0x00	; 0
	.db #0x00	; 0
	.db #0x00	; 0
	.db #0x00	; 0
	.db #0x00	; 0
	.db #0x00	; 0
	.db #0x00	; 0
	.db #0x00	; 0
	.db #0x00	; 0
	.db #0x00	; 0
	.db #0x00	; 0
	.db #0x00	; 0
	.db #0x00	; 0
	.db #0x00	; 0
	.db #0x00	; 0
	.db #0x00	; 0
	.db #0x00	; 0
	.db #0x00	; 0
	.db #0x00	; 0
	.db #0x00	; 0
	.db #0x00	; 0
	.db #0x00	; 0
	.db #0x00	; 0
	.db #0x00	; 0
	.db #0x00	; 0
	.db #0x00	; 0
	.db #0x00	; 0
	.db #0x00	; 0
	.db #0x00	; 0
	.db #0x00	; 0
	.db #0x00	; 0
	.db #0x00	; 0
	.db #0x00	; 0
	.db #0x00	; 0
	.db #0x00	; 0
	.db #0x00	; 0
	.db #0x00	; 0
	.db #0x00	; 0
	.db #0x00	; 0
	.db #0x00	; 0
	.db #0x00	; 0
	.db #0x00	; 0
	.db #0x00	; 0
	.db #0x00	; 0
	.db #0x00	; 0
	.db #0x00	; 0
	.db #0x00	; 0
	.db #0x00	; 0
	.db #0x00	; 0
	.db #0x00	; 0
	.db #0x00	; 0
	.db #0x00	; 0
	.db #0x00	; 0
	.db #0x00	; 0
	.db #0x00	; 0
	.db #0x00	; 0
	.db #0x00	; 0
	.db #0x00	; 0
	.db #0x00	; 0
G$tiles_colors$0_0$0 == .
_tiles_colors:
	.db #0x11	; 17
	.db #0x11	; 17
	.db #0x11	; 17
	.db #0x11	; 17
	.db #0x11	; 17
	.db #0x11	; 17
	.db #0x11	; 17
	.db #0x11	; 17
	.db #0x11	; 17
	.db #0x11	; 17
	.db #0x11	; 17
	.db #0x11	; 17
	.db #0x11	; 17
	.db #0x11	; 17
	.db #0x11	; 17
	.db #0x11	; 17
	.db #0x11	; 17
	.db #0x11	; 17
	.db #0x11	; 17
	.db #0x11	; 17
	.db #0x11	; 17
	.db #0x11	; 17
	.db #0x11	; 17
	.db #0x11	; 17
	.db #0x11	; 17
	.db #0x11	; 17
	.db #0x11	; 17
	.db #0x11	; 17
	.db #0x11	; 17
	.db #0x11	; 17
	.db #0x11	; 17
	.db #0x11	; 17
	.db #0x11	; 17
	.db #0x11	; 17
	.db #0x11	; 17
	.db #0x11	; 17
	.db #0x11	; 17
	.db #0x11	; 17
	.db #0x11	; 17
	.db #0x11	; 17
	.db #0xf4	; 244
	.db #0xf4	; 244
	.db #0x1f	; 31
	.db #0x1f	; 31
	.db #0xf1	; 241
	.db #0xf1	; 241
	.db #0x11	; 17
	.db #0x11	; 17
	.db #0xf4	; 244
	.db #0xf4	; 244
	.db #0xf1	; 241
	.db #0xf1	; 241
	.db #0xf1	; 241
	.db #0xf1	; 241
	.db #0x11	; 17
	.db #0x11	; 17
	.db #0x54	; 84	'T'
	.db #0x54	; 84	'T'
	.db #0x54	; 84	'T'
	.db #0x54	; 84	'T'
	.db #0x54	; 84	'T'
	.db #0x54	; 84	'T'
	.db #0x14	; 20
	.db #0x11	; 17
	.db #0x14	; 20
	.db #0x14	; 20
	.db #0x14	; 20
	.db #0x14	; 20
	.db #0x14	; 20
	.db #0x14	; 20
	.db #0x14	; 20
	.db #0x11	; 17
	.db #0xf7	; 247
	.db #0xf7	; 247
	.db #0xf7	; 247
	.db #0xf7	; 247
	.db #0xf7	; 247
	.db #0xf7	; 247
	.db #0x11	; 17
	.db #0x11	; 17
	.db #0x17	; 23
	.db #0x17	; 23
	.db #0x17	; 23
	.db #0x17	; 23
	.db #0x17	; 23
	.db #0x17	; 23
	.db #0x11	; 17
	.db #0x11	; 17
	.db #0x11	; 17
	.db #0x11	; 17
	.db #0x11	; 17
	.db #0x11	; 17
	.db #0x11	; 17
	.db #0x11	; 17
	.db #0x11	; 17
	.db #0x11	; 17
	.db #0x11	; 17
	.db #0x14	; 20
	.db #0x11	; 17
	.db #0x11	; 17
	.db #0x11	; 17
	.db #0x11	; 17
	.db #0x11	; 17
	.db #0x11	; 17
	.db #0x11	; 17
	.db #0x14	; 20
	.db #0x11	; 17
	.db #0x14	; 20
	.db #0x11	; 17
	.db #0x14	; 20
	.db #0x11	; 17
	.db #0x11	; 17
	.db #0x1a	; 26
	.db #0x11	; 17
	.db #0x1a	; 26
	.db #0x11	; 17
	.db #0x1a	; 26
	.db #0x11	; 17
	.db #0x1a	; 26
	.db #0x11	; 17
	.db #0x1a	; 26
	.db #0x11	; 17
	.db #0x1a	; 26
	.db #0x11	; 17
	.db #0x1a	; 26
	.db #0x11	; 17
	.db #0x1a	; 26
	.db #0x11	; 17
	.db #0x11	; 17
	.db #0x11	; 17
	.db #0x11	; 17
	.db #0x11	; 17
	.db #0x11	; 17
	.db #0x11	; 17
	.db #0x11	; 17
	.db #0x11	; 17
	.db #0x11	; 17
	.db #0x11	; 17
	.db #0x11	; 17
	.db #0x11	; 17
	.db #0x11	; 17
	.db #0x11	; 17
	.db #0x11	; 17
	.db #0x11	; 17
	.db #0x11	; 17
	.db #0x11	; 17
	.db #0x11	; 17
	.db #0x11	; 17
	.db #0x11	; 17
	.db #0x11	; 17
	.db #0x11	; 17
	.db #0x11	; 17
	.db #0x11	; 17
	.db #0x11	; 17
	.db #0x11	; 17
	.db #0x11	; 17
	.db #0x11	; 17
	.db #0x11	; 17
	.db #0x11	; 17
	.db #0x11	; 17
	.db #0x11	; 17
	.db #0x11	; 17
	.db #0x11	; 17
	.db #0x11	; 17
	.db #0x11	; 17
	.db #0x11	; 17
	.db #0x11	; 17
	.db #0x11	; 17
	.db #0x11	; 17
	.db #0x11	; 17
	.db #0x11	; 17
	.db #0x11	; 17
	.db #0x11	; 17
	.db #0x11	; 17
	.db #0x11	; 17
	.db #0x11	; 17
	.db #0x11	; 17
	.db #0x11	; 17
	.db #0x11	; 17
	.db #0x11	; 17
	.db #0x11	; 17
	.db #0x11	; 17
	.db #0x11	; 17
	.db #0x11	; 17
	.db #0x11	; 17
	.db #0x11	; 17
	.db #0x11	; 17
	.db #0x11	; 17
	.db #0x11	; 17
	.db #0x11	; 17
	.db #0x11	; 17
	.db #0x11	; 17
	.db #0x11	; 17
	.db #0x11	; 17
	.db #0x11	; 17
	.db #0x11	; 17
	.db #0x11	; 17
	.db #0x11	; 17
	.db #0x11	; 17
	.db #0x11	; 17
	.db #0x11	; 17
	.db #0x11	; 17
	.db #0x11	; 17
	.db #0x11	; 17
	.db #0x11	; 17
	.db #0x11	; 17
	.db #0x11	; 17
	.db #0x11	; 17
	.db #0x11	; 17
	.db #0x11	; 17
	.db #0x11	; 17
	.db #0x11	; 17
	.db #0x11	; 17
	.db #0x11	; 17
	.db #0x11	; 17
	.db #0x11	; 17
	.db #0x11	; 17
	.db #0x11	; 17
	.db #0x11	; 17
	.db #0x11	; 17
	.db #0x11	; 17
	.db #0x11	; 17
	.db #0x11	; 17
	.db #0x11	; 17
	.db #0x11	; 17
	.db #0x11	; 17
	.db #0x11	; 17
	.db #0x11	; 17
	.db #0x11	; 17
	.db #0x11	; 17
	.db #0x11	; 17
	.db #0x11	; 17
	.db #0x11	; 17
	.db #0x11	; 17
	.db #0x11	; 17
	.db #0x11	; 17
	.db #0x11	; 17
	.db #0x11	; 17
	.db #0x11	; 17
	.db #0x11	; 17
	.db #0x11	; 17
	.db #0x11	; 17
	.db #0x11	; 17
	.db #0x11	; 17
	.db #0x11	; 17
	.db #0x11	; 17
	.db #0x11	; 17
	.db #0x11	; 17
	.db #0x11	; 17
	.db #0x11	; 17
	.db #0x11	; 17
	.db #0x11	; 17
	.db #0x11	; 17
	.db #0x11	; 17
	.db #0x11	; 17
	.db #0x11	; 17
	.db #0x11	; 17
	.db #0x11	; 17
	.db #0x11	; 17
	.db #0xf1	; 241
	.db #0xf1	; 241
	.db #0xf1	; 241
	.db #0xf1	; 241
	.db #0xf1	; 241
	.db #0x11	; 17
	.db #0x11	; 17
	.db #0x11	; 17
	.db #0xf1	; 241
	.db #0xf1	; 241
	.db #0x1f	; 31
	.db #0xf1	; 241
	.db #0xf1	; 241
	.db #0x11	; 17
	.db #0x11	; 17
	.db #0x11	; 17
	.db #0xf1	; 241
	.db #0xf1	; 241
	.db #0xf1	; 241
	.db #0xf1	; 241
	.db #0xf1	; 241
	.db #0x11	; 17
	.db #0x11	; 17
	.db #0x11	; 17
	.db #0xf1	; 241
	.db #0x1f	; 31
	.db #0x1f	; 31
	.db #0xf1	; 241
	.db #0xf1	; 241
	.db #0x11	; 17
	.db #0x11	; 17
	.db #0x11	; 17
	.db #0xf1	; 241
	.db #0xf1	; 241
	.db #0xf1	; 241
	.db #0xf1	; 241
	.db #0xf1	; 241
	.db #0x11	; 17
	.db #0x11	; 17
	.db #0x11	; 17
	.db #0x1f	; 31
	.db #0x1f	; 31
	.db #0x1f	; 31
	.db #0x11	; 17
	.db #0x11	; 17
	.db #0x11	; 17
	.db #0x11	; 17
	.db #0x11	; 17
	.db #0xf1	; 241
	.db #0xf1	; 241
	.db #0xf1	; 241
	.db #0xf1	; 241
	.db #0xf1	; 241
	.db #0x11	; 17
	.db #0x11	; 17
	.db #0x11	; 17
	.db #0xf1	; 241
	.db #0xf1	; 241
	.db #0xf1	; 241
	.db #0x11	; 17
	.db #0x11	; 17
	.db #0x11	; 17
	.db #0x11	; 17
	.db #0x11	; 17
	.db #0xf1	; 241
	.db #0xf1	; 241
	.db #0xf1	; 241
	.db #0xf1	; 241
	.db #0xf1	; 241
	.db #0x11	; 17
	.db #0x11	; 17
	.db #0x11	; 17
	.db #0xf1	; 241
	.db #0xf1	; 241
	.db #0xf1	; 241
	.db #0xf1	; 241
	.db #0xf1	; 241
	.db #0x11	; 17
	.db #0x11	; 17
	.db #0x11	; 17
	.db #0x11	; 17
	.db #0x11	; 17
	.db #0x11	; 17
	.db #0x11	; 17
	.db #0x11	; 17
	.db #0x11	; 17
	.db #0x11	; 17
	.db #0x11	; 17
	.db #0x11	; 17
	.db #0x11	; 17
	.db #0x11	; 17
	.db #0x11	; 17
	.db #0x11	; 17
	.db #0x11	; 17
	.db #0x11	; 17
	.db #0x11	; 17
	.db #0x11	; 17
	.db #0x11	; 17
	.db #0x11	; 17
	.db #0x11	; 17
	.db #0x11	; 17
	.db #0x11	; 17
	.db #0x11	; 17
	.db #0x11	; 17
	.db #0x11	; 17
	.db #0x11	; 17
	.db #0x11	; 17
	.db #0x11	; 17
	.db #0x11	; 17
	.db #0x11	; 17
	.db #0x11	; 17
	.db #0x11	; 17
	.db #0x11	; 17
	.db #0x11	; 17
	.db #0x11	; 17
	.db #0x11	; 17
	.db #0x11	; 17
	.db #0x11	; 17
	.db #0x11	; 17
	.db #0x11	; 17
	.db #0x11	; 17
	.db #0x11	; 17
	.db #0x11	; 17
	.db #0x11	; 17
	.db #0x11	; 17
	.db #0x11	; 17
	.db #0x11	; 17
	.db #0x11	; 17
	.db #0x11	; 17
	.db #0x11	; 17
	.db #0x11	; 17
	.db #0x11	; 17
	.db #0x11	; 17
	.db #0x11	; 17
	.db #0x11	; 17
	.db #0x11	; 17
	.db #0x11	; 17
	.db #0x11	; 17
	.db #0x11	; 17
	.db #0x11	; 17
	.db #0x11	; 17
	.db #0x11	; 17
	.db #0x11	; 17
	.db #0x11	; 17
	.db #0x11	; 17
	.db #0x11	; 17
	.db #0x11	; 17
	.db #0x11	; 17
	.db #0x11	; 17
	.db #0x11	; 17
	.db #0x11	; 17
	.db #0x11	; 17
	.db #0x11	; 17
	.db #0x11	; 17
	.db #0x11	; 17
	.db #0x11	; 17
	.db #0x11	; 17
	.db #0x11	; 17
	.db #0x11	; 17
	.db #0x11	; 17
	.db #0x11	; 17
	.db #0x11	; 17
	.db #0x11	; 17
	.db #0x11	; 17
	.db #0x11	; 17
	.db #0x11	; 17
	.db #0x11	; 17
	.db #0x11	; 17
	.db #0x11	; 17
	.db #0x11	; 17
	.db #0x11	; 17
	.db #0x11	; 17
	.db #0x11	; 17
	.db #0x11	; 17
	.db #0x11	; 17
	.db #0x11	; 17
	.db #0x11	; 17
	.db #0x11	; 17
	.db #0x11	; 17
	.db #0x11	; 17
	.db #0x11	; 17
	.db #0x11	; 17
	.db #0x11	; 17
	.db #0x11	; 17
	.db #0x11	; 17
	.db #0x11	; 17
	.db #0x11	; 17
	.db #0x11	; 17
	.db #0x11	; 17
	.db #0x11	; 17
	.db #0x11	; 17
	.db #0x11	; 17
	.db #0x11	; 17
	.db #0x11	; 17
	.db #0x11	; 17
	.db #0x11	; 17
	.db #0x11	; 17
	.db #0x11	; 17
	.db #0x11	; 17
	.db #0x11	; 17
	.db #0x11	; 17
	.db #0x11	; 17
	.db #0x11	; 17
	.db #0x11	; 17
	.db #0x11	; 17
	.db #0x11	; 17
	.db #0x11	; 17
	.db #0x11	; 17
	.db #0x11	; 17
	.db #0x11	; 17
	.db #0x11	; 17
	.db #0x11	; 17
	.db #0x11	; 17
	.db #0x11	; 17
	.db #0x11	; 17
	.db #0x11	; 17
	.db #0x11	; 17
	.db #0x11	; 17
	.db #0x11	; 17
	.db #0x11	; 17
	.db #0x11	; 17
	.db #0x11	; 17
	.db #0x11	; 17
	.db #0x11	; 17
	.db #0x11	; 17
	.db #0x11	; 17
	.db #0x11	; 17
	.db #0x11	; 17
	.db #0x11	; 17
	.db #0x11	; 17
	.db #0x11	; 17
	.db #0x11	; 17
	.db #0x11	; 17
	.db #0x11	; 17
	.db #0x11	; 17
	.db #0x11	; 17
	.db #0x11	; 17
	.db #0x11	; 17
	.db #0x11	; 17
	.db #0x11	; 17
	.db #0x11	; 17
	.db #0x11	; 17
	.db #0x11	; 17
	.db #0x11	; 17
	.db #0x11	; 17
	.db #0x11	; 17
	.db #0x11	; 17
	.db #0x11	; 17
	.db #0x11	; 17
	.db #0x11	; 17
	.db #0x11	; 17
	.db #0x11	; 17
	.db #0x11	; 17
	.db #0x31	; 49	'1'
	.db #0x31	; 49	'1'
	.db #0x31	; 49	'1'
	.db #0x31	; 49	'1'
	.db #0x31	; 49	'1'
	.db #0x31	; 49	'1'
	.db #0x31	; 49	'1'
	.db #0x31	; 49	'1'
	.db #0x31	; 49	'1'
	.db #0x11	; 17
	.db #0x11	; 17
	.db #0x31	; 49	'1'
	.db #0x31	; 49	'1'
	.db #0x31	; 49	'1'
	.db #0x31	; 49	'1'
	.db #0x31	; 49	'1'
	.db #0x31	; 49	'1'
	.db #0x31	; 49	'1'
	.db #0x31	; 49	'1'
	.db #0x31	; 49	'1'
	.db #0x31	; 49	'1'
	.db #0x31	; 49	'1'
	.db #0x31	; 49	'1'
	.db #0x31	; 49	'1'
	.db #0x31	; 49	'1'
	.db #0x31	; 49	'1'
	.db #0x31	; 49	'1'
	.db #0x31	; 49	'1'
	.db #0x31	; 49	'1'
	.db #0x31	; 49	'1'
	.db #0x31	; 49	'1'
	.db #0x31	; 49	'1'
	.db #0x31	; 49	'1'
	.db #0x31	; 49	'1'
	.db #0x31	; 49	'1'
	.db #0x31	; 49	'1'
	.db #0x31	; 49	'1'
	.db #0x31	; 49	'1'
	.db #0x31	; 49	'1'
	.db #0x31	; 49	'1'
	.db #0x11	; 17
	.db #0x11	; 17
	.db #0x31	; 49	'1'
	.db #0x31	; 49	'1'
	.db #0x31	; 49	'1'
	.db #0x11	; 17
	.db #0x11	; 17
	.db #0x11	; 17
	.db #0x31	; 49	'1'
	.db #0x31	; 49	'1'
	.db #0x31	; 49	'1'
	.db #0x31	; 49	'1'
	.db #0x31	; 49	'1'
	.db #0x31	; 49	'1'
	.db #0x31	; 49	'1'
	.db #0x31	; 49	'1'
	.db #0x31	; 49	'1'
	.db #0x31	; 49	'1'
	.db #0x31	; 49	'1'
	.db #0x31	; 49	'1'
	.db #0x31	; 49	'1'
	.db #0x31	; 49	'1'
	.db #0x31	; 49	'1'
	.db #0x31	; 49	'1'
	.db #0x31	; 49	'1'
	.db #0x31	; 49	'1'
	.db #0x31	; 49	'1'
	.db #0x31	; 49	'1'
	.db #0x31	; 49	'1'
	.db #0x31	; 49	'1'
	.db #0x31	; 49	'1'
	.db #0x31	; 49	'1'
	.db #0x31	; 49	'1'
	.db #0x31	; 49	'1'
	.db #0x31	; 49	'1'
	.db #0x31	; 49	'1'
	.db #0x31	; 49	'1'
	.db #0x31	; 49	'1'
	.db #0x31	; 49	'1'
	.db #0x31	; 49	'1'
	.db #0x11	; 17
	.db #0x11	; 17
	.db #0x11	; 17
	.db #0x11	; 17
	.db #0x11	; 17
	.db #0x11	; 17
	.db #0x11	; 17
	.db #0x11	; 17
	.db #0x11	; 17
	.db #0x11	; 17
	.db #0x11	; 17
	.db #0x11	; 17
	.db #0x11	; 17
	.db #0x11	; 17
	.db #0x11	; 17
	.db #0x11	; 17
	.db #0x11	; 17
	.db #0x11	; 17
	.db #0x11	; 17
	.db #0x11	; 17
	.db #0x11	; 17
	.db #0x11	; 17
	.db #0x11	; 17
	.db #0x11	; 17
	.db #0x11	; 17
	.db #0x11	; 17
	.db #0x11	; 17
	.db #0x11	; 17
	.db #0x11	; 17
	.db #0x11	; 17
	.db #0x11	; 17
	.db #0x11	; 17
	.db #0x11	; 17
	.db #0x11	; 17
	.db #0x11	; 17
	.db #0x11	; 17
	.db #0x11	; 17
	.db #0x11	; 17
	.db #0x11	; 17
	.db #0x11	; 17
	.db #0x11	; 17
	.db #0x11	; 17
	.db #0x11	; 17
	.db #0x11	; 17
	.db #0x11	; 17
	.db #0x11	; 17
	.db #0x11	; 17
	.db #0x11	; 17
	.db #0x11	; 17
	.db #0x11	; 17
	.db #0x11	; 17
	.db #0x11	; 17
	.db #0x11	; 17
	.db #0x11	; 17
	.db #0x11	; 17
	.db #0x11	; 17
	.db #0x11	; 17
	.db #0x11	; 17
	.db #0x11	; 17
	.db #0x11	; 17
	.db #0x11	; 17
	.db #0x11	; 17
	.db #0x11	; 17
	.db #0x11	; 17
	.db #0x11	; 17
	.db #0x11	; 17
	.db #0x11	; 17
	.db #0x11	; 17
	.db #0x11	; 17
	.db #0x11	; 17
	.db #0x11	; 17
	.db #0x11	; 17
	.db #0x11	; 17
	.db #0x11	; 17
	.db #0x11	; 17
	.db #0x11	; 17
	.db #0x11	; 17
	.db #0x11	; 17
	.db #0x11	; 17
	.db #0x11	; 17
	.db #0x11	; 17
	.db #0x11	; 17
	.db #0x11	; 17
	.db #0x11	; 17
	.db #0x11	; 17
	.db #0x11	; 17
	.db #0x11	; 17
	.db #0x11	; 17
	.db #0x11	; 17
	.db #0x11	; 17
	.db #0x11	; 17
	.db #0x11	; 17
	.db #0x11	; 17
	.db #0x11	; 17
	.db #0x11	; 17
	.db #0x11	; 17
	.db #0x11	; 17
	.db #0x11	; 17
	.db #0x11	; 17
	.db #0x11	; 17
	.db #0x11	; 17
	.db #0x11	; 17
	.db #0x11	; 17
	.db #0x11	; 17
	.db #0x11	; 17
	.db #0x11	; 17
	.db #0x11	; 17
	.db #0x11	; 17
	.db #0x11	; 17
	.db #0x11	; 17
	.db #0x11	; 17
	.db #0x11	; 17
	.db #0x11	; 17
	.db #0x11	; 17
	.db #0x11	; 17
	.db #0x11	; 17
	.db #0x11	; 17
	.db #0x11	; 17
	.db #0x11	; 17
	.db #0x11	; 17
	.db #0x11	; 17
	.db #0x11	; 17
	.db #0x11	; 17
	.db #0x11	; 17
	.db #0x11	; 17
	.db #0x11	; 17
	.db #0x11	; 17
	.db #0x11	; 17
	.db #0x11	; 17
	.db #0x11	; 17
	.db #0x11	; 17
	.db #0x11	; 17
	.db #0x11	; 17
	.db #0x11	; 17
	.db #0x11	; 17
	.db #0x11	; 17
	.db #0x11	; 17
	.db #0x11	; 17
	.db #0x11	; 17
	.db #0x11	; 17
	.db #0x11	; 17
	.db #0x11	; 17
	.db #0x11	; 17
	.db #0x11	; 17
	.db #0x11	; 17
	.db #0x11	; 17
	.db #0x11	; 17
	.db #0x11	; 17
	.db #0x11	; 17
	.db #0x11	; 17
	.db #0x11	; 17
	.db #0x11	; 17
	.db #0x11	; 17
	.db #0x11	; 17
	.db #0x11	; 17
	.db #0x11	; 17
	.db #0x11	; 17
	.db #0x11	; 17
	.db #0x11	; 17
	.db #0x11	; 17
	.db #0x11	; 17
	.db #0x11	; 17
	.db #0x11	; 17
	.db #0x11	; 17
	.db #0x11	; 17
	.db #0x11	; 17
	.db #0x11	; 17
	.db #0x11	; 17
	.db #0x11	; 17
	.db #0x11	; 17
	.db #0x11	; 17
	.db #0x11	; 17
	.db #0x11	; 17
	.db #0x11	; 17
	.db #0x11	; 17
	.db #0x11	; 17
	.db #0x1c	; 28
	.db #0x1c	; 28
	.db #0x1c	; 28
	.db #0x1c	; 28
	.db #0x1c	; 28
	.db #0x11	; 17
	.db #0x11	; 17
	.db #0x11	; 17
	.db #0x1c	; 28
	.db #0x1c	; 28
	.db #0x1c	; 28
	.db #0x1c	; 28
	.db #0x1c	; 28
	.db #0x11	; 17
	.db #0x11	; 17
	.db #0x11	; 17
	.db #0x1c	; 28
	.db #0x1c	; 28
	.db #0x1c	; 28
	.db #0x1c	; 28
	.db #0x1c	; 28
	.db #0x11	; 17
	.db #0x11	; 17
	.db #0x11	; 17
	.db #0x1c	; 28
	.db #0x1c	; 28
	.db #0x1c	; 28
	.db #0x1c	; 28
	.db #0x1c	; 28
	.db #0x11	; 17
	.db #0x11	; 17
	.db #0x11	; 17
	.db #0x1c	; 28
	.db #0x1c	; 28
	.db #0x1c	; 28
	.db #0x1c	; 28
	.db #0x1c	; 28
	.db #0x11	; 17
	.db #0x11	; 17
	.db #0x11	; 17
	.db #0x11	; 17
	.db #0x11	; 17
	.db #0x1c	; 28
	.db #0x1c	; 28
	.db #0x1c	; 28
	.db #0x11	; 17
	.db #0x11	; 17
	.db #0x11	; 17
	.db #0x1c	; 28
	.db #0x1c	; 28
	.db #0x1c	; 28
	.db #0x1c	; 28
	.db #0x1c	; 28
	.db #0x11	; 17
	.db #0x11	; 17
	.db #0x11	; 17
	.db #0x1c	; 28
	.db #0x1c	; 28
	.db #0x1c	; 28
	.db #0x1c	; 28
	.db #0x1c	; 28
	.db #0x11	; 17
	.db #0x11	; 17
	.db #0x11	; 17
	.db #0x1c	; 28
	.db #0x1c	; 28
	.db #0x1c	; 28
	.db #0x1c	; 28
	.db #0x1c	; 28
	.db #0x11	; 17
	.db #0x11	; 17
	.db #0x11	; 17
	.db #0x1c	; 28
	.db #0x1c	; 28
	.db #0x1c	; 28
	.db #0x1c	; 28
	.db #0x1c	; 28
	.db #0x11	; 17
	.db #0x11	; 17
	.db #0x11	; 17
	.db #0x11	; 17
	.db #0x11	; 17
	.db #0x11	; 17
	.db #0x11	; 17
	.db #0x11	; 17
	.db #0x11	; 17
	.db #0x11	; 17
	.db #0x11	; 17
	.db #0x11	; 17
	.db #0x11	; 17
	.db #0x11	; 17
	.db #0x11	; 17
	.db #0x11	; 17
	.db #0x11	; 17
	.db #0x11	; 17
	.db #0x11	; 17
	.db #0x11	; 17
	.db #0x11	; 17
	.db #0x11	; 17
	.db #0x11	; 17
	.db #0x11	; 17
	.db #0x11	; 17
	.db #0x11	; 17
	.db #0x11	; 17
	.db #0x11	; 17
	.db #0x11	; 17
	.db #0x11	; 17
	.db #0x11	; 17
	.db #0x11	; 17
	.db #0x11	; 17
	.db #0x11	; 17
	.db #0x11	; 17
	.db #0x11	; 17
	.db #0x11	; 17
	.db #0x11	; 17
	.db #0x11	; 17
	.db #0x11	; 17
	.db #0x11	; 17
	.db #0x11	; 17
	.db #0x11	; 17
	.db #0x11	; 17
	.db #0x11	; 17
	.db #0x11	; 17
	.db #0x11	; 17
	.db #0x11	; 17
	.db #0x11	; 17
	.db #0x11	; 17
	.db #0x11	; 17
	.db #0x11	; 17
	.db #0x11	; 17
	.db #0x11	; 17
	.db #0x11	; 17
	.db #0x11	; 17
	.db #0x11	; 17
	.db #0x11	; 17
	.db #0x11	; 17
	.db #0x11	; 17
	.db #0x11	; 17
	.db #0x11	; 17
	.db #0x11	; 17
	.db #0x11	; 17
	.db #0x11	; 17
	.db #0x11	; 17
	.db #0x11	; 17
	.db #0x11	; 17
	.db #0x11	; 17
	.db #0x11	; 17
	.db #0x11	; 17
	.db #0x11	; 17
	.db #0x11	; 17
	.db #0x11	; 17
	.db #0x11	; 17
	.db #0x11	; 17
	.db #0x11	; 17
	.db #0x11	; 17
	.db #0x11	; 17
	.db #0x11	; 17
	.db #0x11	; 17
	.db #0x11	; 17
	.db #0x11	; 17
	.db #0x11	; 17
	.db #0x11	; 17
	.db #0x11	; 17
	.db #0x11	; 17
	.db #0x11	; 17
	.db #0x11	; 17
	.db #0x11	; 17
	.db #0x11	; 17
	.db #0x11	; 17
	.db #0x11	; 17
	.db #0x11	; 17
	.db #0x11	; 17
	.db #0x11	; 17
	.db #0x11	; 17
	.db #0x11	; 17
	.db #0x11	; 17
	.db #0x11	; 17
	.db #0x11	; 17
	.db #0x11	; 17
	.db #0x11	; 17
	.db #0x11	; 17
	.db #0x11	; 17
	.db #0x11	; 17
	.db #0x11	; 17
	.db #0x11	; 17
	.db #0x11	; 17
	.db #0x11	; 17
	.db #0x11	; 17
	.db #0x11	; 17
	.db #0x11	; 17
	.db #0x11	; 17
	.db #0x11	; 17
	.db #0x11	; 17
	.db #0x11	; 17
	.db #0x11	; 17
	.db #0x11	; 17
	.db #0x11	; 17
	.db #0x11	; 17
	.db #0x11	; 17
	.db #0x11	; 17
	.db #0x11	; 17
	.db #0x11	; 17
	.db #0x11	; 17
	.db #0x11	; 17
	.db #0x11	; 17
	.db #0x11	; 17
	.db #0x11	; 17
	.db #0x11	; 17
	.db #0x11	; 17
	.db #0x11	; 17
	.db #0x11	; 17
	.db #0x11	; 17
	.db #0x11	; 17
	.db #0x11	; 17
	.db #0x11	; 17
	.db #0x11	; 17
	.db #0x11	; 17
	.db #0x11	; 17
	.db #0x11	; 17
	.db #0x11	; 17
	.db #0x11	; 17
	.db #0x11	; 17
	.db #0x11	; 17
	.db #0x11	; 17
	.db #0x11	; 17
	.db #0x11	; 17
	.db #0x11	; 17
	.db #0x11	; 17
	.db #0x11	; 17
	.db #0x11	; 17
	.db #0x11	; 17
	.db #0x11	; 17
	.db #0x11	; 17
	.db #0x11	; 17
	.db #0x11	; 17
	.db #0x11	; 17
	.db #0x11	; 17
	.db #0x11	; 17
	.db #0x11	; 17
	.db #0x11	; 17
	.db #0x11	; 17
	.db #0x11	; 17
	.db #0x11	; 17
	.db #0x11	; 17
	.db #0x11	; 17
	.db #0x11	; 17
	.db #0x11	; 17
	.db #0x11	; 17
	.db #0x11	; 17
	.db #0x11	; 17
	.db #0x11	; 17
	.db #0x11	; 17
	.db #0x11	; 17
	.db #0x11	; 17
	.db #0x11	; 17
	.db #0x11	; 17
	.db #0xf1	; 241
	.db #0xf1	; 241
	.db #0xf1	; 241
	.db #0xf1	; 241
	.db #0xf1	; 241
	.db #0xf1	; 241
	.db #0xf1	; 241
	.db #0x11	; 17
	.db #0x11	; 17
	.db #0x11	; 17
	.db #0x11	; 17
	.db #0x11	; 17
	.db #0x11	; 17
	.db #0x11	; 17
	.db #0x11	; 17
	.db #0x11	; 17
	.db #0xf1	; 241
	.db #0xf1	; 241
	.db #0xf1	; 241
	.db #0xf1	; 241
	.db #0xf1	; 241
	.db #0x11	; 17
	.db #0xf1	; 241
	.db #0x11	; 17
	.db #0xf1	; 241
	.db #0xf1	; 241
	.db #0xf1	; 241
	.db #0x11	; 17
	.db #0x11	; 17
	.db #0x11	; 17
	.db #0x11	; 17
	.db #0x11	; 17
	.db #0xf1	; 241
	.db #0xf1	; 241
	.db #0xf1	; 241
	.db #0xf1	; 241
	.db #0xf1	; 241
	.db #0xf1	; 241
	.db #0xf1	; 241
	.db #0x11	; 17
	.db #0xf1	; 241
	.db #0xf1	; 241
	.db #0xf1	; 241
	.db #0xf1	; 241
	.db #0xf1	; 241
	.db #0xf1	; 241
	.db #0xf1	; 241
	.db #0x11	; 17
	.db #0xf1	; 241
	.db #0xf1	; 241
	.db #0xf1	; 241
	.db #0xf1	; 241
	.db #0xf1	; 241
	.db #0xf1	; 241
	.db #0xf1	; 241
	.db #0x11	; 17
	.db #0xf1	; 241
	.db #0xf1	; 241
	.db #0xf1	; 241
	.db #0xf1	; 241
	.db #0xf1	; 241
	.db #0xf1	; 241
	.db #0xf1	; 241
	.db #0x11	; 17
	.db #0xf1	; 241
	.db #0xf1	; 241
	.db #0xf1	; 241
	.db #0x11	; 17
	.db #0x11	; 17
	.db #0x11	; 17
	.db #0x11	; 17
	.db #0x11	; 17
	.db #0xf1	; 241
	.db #0xf1	; 241
	.db #0xf1	; 241
	.db #0xf1	; 241
	.db #0xf1	; 241
	.db #0xf1	; 241
	.db #0xf1	; 241
	.db #0x11	; 17
	.db #0xf1	; 241
	.db #0xf1	; 241
	.db #0xf1	; 241
	.db #0xf1	; 241
	.db #0xf1	; 241
	.db #0xf1	; 241
	.db #0xf1	; 241
	.db #0x11	; 17
	.db #0x11	; 17
	.db #0xf1	; 241
	.db #0xf1	; 241
	.db #0xf1	; 241
	.db #0xf1	; 241
	.db #0xf1	; 241
	.db #0x11	; 17
	.db #0x11	; 17
	.db #0x11	; 17
	.db #0xf1	; 241
	.db #0xf1	; 241
	.db #0xf1	; 241
	.db #0xf1	; 241
	.db #0xf1	; 241
	.db #0x11	; 17
	.db #0x11	; 17
	.db #0x11	; 17
	.db #0x11	; 17
	.db #0x11	; 17
	.db #0x11	; 17
	.db #0x11	; 17
	.db #0xf1	; 241
	.db #0xf1	; 241
	.db #0xf1	; 241
	.db #0x11	; 17
	.db #0x11	; 17
	.db #0x11	; 17
	.db #0xf1	; 241
	.db #0x11	; 17
	.db #0x11	; 17
	.db #0x11	; 17
	.db #0x11	; 17
	.db #0x11	; 17
	.db #0x11	; 17
	.db #0x11	; 17
	.db #0x11	; 17
	.db #0x11	; 17
	.db #0xf1	; 241
	.db #0xf1	; 241
	.db #0x11	; 17
	.db #0x11	; 17
	.db #0xf1	; 241
	.db #0xf1	; 241
	.db #0xf1	; 241
	.db #0xf1	; 241
	.db #0xf1	; 241
	.db #0x11	; 17
	.db #0x11	; 17
	.db #0xf1	; 241
	.db #0xf1	; 241
	.db #0xf1	; 241
	.db #0xf1	; 241
	.db #0xf1	; 241
	.db #0xf1	; 241
	.db #0xf1	; 241
	.db #0x11	; 17
	.db #0xf1	; 241
	.db #0xf1	; 241
	.db #0xf1	; 241
	.db #0xf1	; 241
	.db #0xf1	; 241
	.db #0xf1	; 241
	.db #0xf1	; 241
	.db #0x11	; 17
	.db #0xf1	; 241
	.db #0xf1	; 241
	.db #0xf1	; 241
	.db #0xf1	; 241
	.db #0xf1	; 241
	.db #0xf1	; 241
	.db #0xf1	; 241
	.db #0x11	; 17
	.db #0xf1	; 241
	.db #0xf1	; 241
	.db #0xf1	; 241
	.db #0xf1	; 241
	.db #0xf1	; 241
	.db #0xf1	; 241
	.db #0xf1	; 241
	.db #0x11	; 17
	.db #0xf1	; 241
	.db #0xf1	; 241
	.db #0xf1	; 241
	.db #0xf1	; 241
	.db #0xf1	; 241
	.db #0xf1	; 241
	.db #0xf1	; 241
	.db #0x11	; 17
	.db #0xf1	; 241
	.db #0xf1	; 241
	.db #0xf1	; 241
	.db #0xf1	; 241
	.db #0xf1	; 241
	.db #0xf1	; 241
	.db #0xf1	; 241
	.db #0x11	; 17
	.db #0xf1	; 241
	.db #0xf1	; 241
	.db #0xf1	; 241
	.db #0xf1	; 241
	.db #0xf1	; 241
	.db #0xf1	; 241
	.db #0xf1	; 241
	.db #0x11	; 17
	.db #0xf1	; 241
	.db #0xf1	; 241
	.db #0xf1	; 241
	.db #0xf1	; 241
	.db #0xf1	; 241
	.db #0xf1	; 241
	.db #0xf1	; 241
	.db #0x11	; 17
	.db #0xf1	; 241
	.db #0xf1	; 241
	.db #0xf1	; 241
	.db #0xf1	; 241
	.db #0xf1	; 241
	.db #0xf1	; 241
	.db #0xf1	; 241
	.db #0x11	; 17
	.db #0xf1	; 241
	.db #0xf1	; 241
	.db #0xf1	; 241
	.db #0xf1	; 241
	.db #0xf1	; 241
	.db #0xf1	; 241
	.db #0xf1	; 241
	.db #0x11	; 17
	.db #0x11	; 17
	.db #0x11	; 17
	.db #0xf1	; 241
	.db #0xf1	; 241
	.db #0x11	; 17
	.db #0xf1	; 241
	.db #0xf1	; 241
	.db #0x11	; 17
	.db #0x11	; 17
	.db #0x11	; 17
	.db #0xf1	; 241
	.db #0xf1	; 241
	.db #0x11	; 17
	.db #0xf1	; 241
	.db #0xf1	; 241
	.db #0xf1	; 241
	.db #0xf1	; 241
	.db #0xf1	; 241
	.db #0xf1	; 241
	.db #0xf1	; 241
	.db #0xf1	; 241
	.db #0xf1	; 241
	.db #0xf1	; 241
	.db #0x11	; 17
	.db #0x11	; 17
	.db #0x11	; 17
	.db #0xf1	; 241
	.db #0x11	; 17
	.db #0xf1	; 241
	.db #0x11	; 17
	.db #0x11	; 17
	.db #0x11	; 17
	.db #0xf1	; 241
	.db #0xf1	; 241
	.db #0xf1	; 241
	.db #0xf1	; 241
	.db #0xf1	; 241
	.db #0xf1	; 241
	.db #0xf1	; 241
	.db #0x11	; 17
	.db #0xf1	; 241
	.db #0xf1	; 241
	.db #0xf1	; 241
	.db #0xf1	; 241
	.db #0xf1	; 241
	.db #0x11	; 17
	.db #0xe1	; 225
	.db #0x11	; 17
	.db #0xf1	; 241
	.db #0xf1	; 241
	.db #0xf1	; 241
	.db #0xf1	; 241
	.db #0xf1	; 241
	.db #0xf1	; 241
	.db #0xf1	; 241
	.db #0x11	; 17
	.db #0xf1	; 241
	.db #0xf1	; 241
	.db #0xf1	; 241
	.db #0xf1	; 241
	.db #0xf1	; 241
	.db #0xf1	; 241
	.db #0xf1	; 241
	.db #0x11	; 17
	.db #0xf1	; 241
	.db #0xf1	; 241
	.db #0xf1	; 241
	.db #0xf1	; 241
	.db #0xf1	; 241
	.db #0xf1	; 241
	.db #0xf1	; 241
	.db #0x11	; 17
	.db #0xf1	; 241
	.db #0xf1	; 241
	.db #0xf1	; 241
	.db #0xf1	; 241
	.db #0xf1	; 241
	.db #0xf1	; 241
	.db #0xf1	; 241
	.db #0x11	; 17
	.db #0xf1	; 241
	.db #0xf1	; 241
	.db #0xf1	; 241
	.db #0xf1	; 241
	.db #0xf1	; 241
	.db #0xf1	; 241
	.db #0xf1	; 241
	.db #0x11	; 17
	.db #0xf1	; 241
	.db #0xf1	; 241
	.db #0xf1	; 241
	.db #0xf1	; 241
	.db #0xf1	; 241
	.db #0xf1	; 241
	.db #0xf1	; 241
	.db #0x11	; 17
	.db #0xf1	; 241
	.db #0xf1	; 241
	.db #0xf1	; 241
	.db #0xf1	; 241
	.db #0xf1	; 241
	.db #0xf1	; 241
	.db #0xf1	; 241
	.db #0x11	; 17
	.db #0xf1	; 241
	.db #0xf1	; 241
	.db #0xf1	; 241
	.db #0xf1	; 241
	.db #0xf1	; 241
	.db #0xf1	; 241
	.db #0xf1	; 241
	.db #0x11	; 17
	.db #0xf1	; 241
	.db #0xf1	; 241
	.db #0xf1	; 241
	.db #0xf1	; 241
	.db #0xf1	; 241
	.db #0xf1	; 241
	.db #0xf1	; 241
	.db #0x11	; 17
	.db #0xf1	; 241
	.db #0xf1	; 241
	.db #0xf1	; 241
	.db #0xf1	; 241
	.db #0xf1	; 241
	.db #0xf1	; 241
	.db #0xf1	; 241
	.db #0x11	; 17
	.db #0xf1	; 241
	.db #0xf1	; 241
	.db #0xf1	; 241
	.db #0xf1	; 241
	.db #0xf1	; 241
	.db #0xf1	; 241
	.db #0xf1	; 241
	.db #0x11	; 17
	.db #0xf1	; 241
	.db #0xf1	; 241
	.db #0xf1	; 241
	.db #0xf1	; 241
	.db #0xf1	; 241
	.db #0xf1	; 241
	.db #0xf1	; 241
	.db #0x11	; 17
	.db #0xf1	; 241
	.db #0xf1	; 241
	.db #0xf1	; 241
	.db #0xf1	; 241
	.db #0xf1	; 241
	.db #0xf1	; 241
	.db #0xf1	; 241
	.db #0x11	; 17
	.db #0xf1	; 241
	.db #0xf1	; 241
	.db #0xf1	; 241
	.db #0xf1	; 241
	.db #0xf1	; 241
	.db #0xf1	; 241
	.db #0xf1	; 241
	.db #0x11	; 17
	.db #0xf1	; 241
	.db #0xf1	; 241
	.db #0xf1	; 241
	.db #0xf1	; 241
	.db #0xf1	; 241
	.db #0xf1	; 241
	.db #0xf1	; 241
	.db #0x11	; 17
	.db #0xf1	; 241
	.db #0xf1	; 241
	.db #0xf1	; 241
	.db #0xf1	; 241
	.db #0xf1	; 241
	.db #0xf1	; 241
	.db #0xf1	; 241
	.db #0x11	; 17
	.db #0xf1	; 241
	.db #0xf1	; 241
	.db #0xf1	; 241
	.db #0xf1	; 241
	.db #0xf1	; 241
	.db #0xf1	; 241
	.db #0xf1	; 241
	.db #0x11	; 17
	.db #0xf1	; 241
	.db #0xf1	; 241
	.db #0xf1	; 241
	.db #0xf1	; 241
	.db #0xf1	; 241
	.db #0xf1	; 241
	.db #0xf1	; 241
	.db #0x11	; 17
	.db #0xf1	; 241
	.db #0xf1	; 241
	.db #0xf1	; 241
	.db #0xf1	; 241
	.db #0xf1	; 241
	.db #0xf1	; 241
	.db #0xf1	; 241
	.db #0x11	; 17
	.db #0xf1	; 241
	.db #0xf1	; 241
	.db #0xf1	; 241
	.db #0xf1	; 241
	.db #0xf1	; 241
	.db #0xf1	; 241
	.db #0xf1	; 241
	.db #0x11	; 17
	.db #0xf1	; 241
	.db #0xf1	; 241
	.db #0xf1	; 241
	.db #0xf1	; 241
	.db #0xf1	; 241
	.db #0xf1	; 241
	.db #0xf1	; 241
	.db #0x11	; 17
	.db #0xf1	; 241
	.db #0xf1	; 241
	.db #0xf1	; 241
	.db #0xf1	; 241
	.db #0xf1	; 241
	.db #0xf1	; 241
	.db #0xf1	; 241
	.db #0x11	; 17
	.db #0xf1	; 241
	.db #0xf1	; 241
	.db #0xf1	; 241
	.db #0xf1	; 241
	.db #0xf1	; 241
	.db #0xf1	; 241
	.db #0xf1	; 241
	.db #0x11	; 17
	.db #0xf1	; 241
	.db #0xf1	; 241
	.db #0xf1	; 241
	.db #0xf1	; 241
	.db #0xf1	; 241
	.db #0xf1	; 241
	.db #0xf1	; 241
	.db #0x11	; 17
	.db #0xf1	; 241
	.db #0xf1	; 241
	.db #0xf1	; 241
	.db #0xf1	; 241
	.db #0xf1	; 241
	.db #0xf1	; 241
	.db #0xf1	; 241
	.db #0x11	; 17
	.db #0xf1	; 241
	.db #0xf1	; 241
	.db #0xf1	; 241
	.db #0xf1	; 241
	.db #0xf1	; 241
	.db #0xf1	; 241
	.db #0xf1	; 241
	.db #0x11	; 17
	.db #0xf1	; 241
	.db #0xf1	; 241
	.db #0xf1	; 241
	.db #0xf1	; 241
	.db #0xf1	; 241
	.db #0xf1	; 241
	.db #0xf1	; 241
	.db #0x11	; 17
	.db #0xf1	; 241
	.db #0xf1	; 241
	.db #0xf1	; 241
	.db #0xf1	; 241
	.db #0xf1	; 241
	.db #0xf1	; 241
	.db #0xf1	; 241
	.db #0x11	; 17
	.db #0x11	; 17
	.db #0xf1	; 241
	.db #0xf1	; 241
	.db #0xf1	; 241
	.db #0xf1	; 241
	.db #0xf1	; 241
	.db #0x11	; 17
	.db #0x11	; 17
	.db #0xf1	; 241
	.db #0xf1	; 241
	.db #0xf1	; 241
	.db #0xf1	; 241
	.db #0xf1	; 241
	.db #0xf1	; 241
	.db #0xf1	; 241
	.db #0x11	; 17
	.db #0xf1	; 241
	.db #0xf1	; 241
	.db #0xf1	; 241
	.db #0xf1	; 241
	.db #0x11	; 17
	.db #0x11	; 17
	.db #0x11	; 17
	.db #0x11	; 17
	.db #0x11	; 17
	.db #0x14	; 20
	.db #0xb1	; 177
	.db #0x21	; 33
	.db #0x1c	; 28
	.db #0x1c	; 28
	.db #0xb1	; 177
	.db #0xba	; 186
	.db #0x11	; 17
	.db #0x61	; 97	'a'
	.db #0x61	; 97	'a'
	.db #0x61	; 97	'a'
	.db #0x61	; 97	'a'
	.db #0x61	; 97	'a'
	.db #0x61	; 97	'a'
	.db #0x11	; 17
	.db #0x11	; 17
	.db #0x11	; 17
	.db #0x11	; 17
	.db #0x11	; 17
	.db #0x11	; 17
	.db #0x11	; 17
	.db #0x11	; 17
	.db #0x11	; 17
	.db #0x11	; 17
	.db #0x11	; 17
	.db #0x11	; 17
	.db #0x11	; 17
	.db #0x11	; 17
	.db #0x11	; 17
	.db #0x11	; 17
	.db #0x11	; 17
	.db #0x11	; 17
	.db #0x11	; 17
	.db #0x11	; 17
	.db #0x11	; 17
	.db #0x11	; 17
	.db #0x11	; 17
	.db #0x11	; 17
	.db #0x11	; 17
	.db #0x11	; 17
	.db #0x11	; 17
	.db #0x11	; 17
	.db #0x11	; 17
	.db #0x11	; 17
	.db #0x11	; 17
	.db #0x11	; 17
	.db #0x11	; 17
	.db #0x11	; 17
	.db #0x11	; 17
	.db #0x11	; 17
	.db #0x11	; 17
	.db #0x11	; 17
	.db #0x11	; 17
	.db #0x11	; 17
	.db #0x11	; 17
	.db #0x11	; 17
	.db #0x11	; 17
	.db #0x11	; 17
	.db #0x11	; 17
	.db #0x11	; 17
	.db #0x11	; 17
	.db #0x11	; 17
	.db #0x11	; 17
	.db #0x11	; 17
	.db #0x11	; 17
	.db #0x11	; 17
	.db #0x11	; 17
	.db #0x11	; 17
	.db #0x11	; 17
	.db #0x11	; 17
	.db #0x11	; 17
	.db #0x11	; 17
	.db #0x11	; 17
	.db #0x11	; 17
	.db #0x11	; 17
	.db #0x11	; 17
	.db #0x11	; 17
	.db #0x11	; 17
	.db #0x11	; 17
	.db #0x11	; 17
	.db #0x11	; 17
	.db #0x11	; 17
	.db #0x11	; 17
	.db #0x11	; 17
	.db #0x11	; 17
	.db #0x11	; 17
	.db #0x11	; 17
	.db #0x11	; 17
	.db #0x11	; 17
	.db #0x11	; 17
	.db #0x11	; 17
	.db #0x11	; 17
	.db #0x11	; 17
	.db #0x11	; 17
	.db #0x11	; 17
	.db #0x11	; 17
	.db #0x11	; 17
	.db #0x11	; 17
	.db #0x11	; 17
	.db #0x11	; 17
	.db #0x11	; 17
	.db #0x11	; 17
	.db #0x11	; 17
	.db #0x11	; 17
	.db #0x11	; 17
	.db #0x11	; 17
	.db #0x11	; 17
	.db #0x11	; 17
	.db #0x11	; 17
	.db #0x11	; 17
	.db #0x11	; 17
	.db #0x11	; 17
	.db #0x11	; 17
	.db #0x11	; 17
	.db #0x11	; 17
	.db #0x11	; 17
	.db #0x11	; 17
	.db #0x11	; 17
	.db #0x11	; 17
	.db #0x11	; 17
	.db #0x11	; 17
	.db #0x11	; 17
	.db #0x11	; 17
	.db #0x11	; 17
	.db #0x11	; 17
	.db #0x11	; 17
	.db #0x11	; 17
	.db #0x11	; 17
	.db #0x11	; 17
	.db #0x11	; 17
	.db #0x11	; 17
	.db #0x11	; 17
	.db #0x11	; 17
	.db #0x11	; 17
	.db #0x11	; 17
	.db #0x11	; 17
	.db #0x11	; 17
	.db #0x11	; 17
	.db #0x11	; 17
	.db #0x11	; 17
	.db #0x11	; 17
	.db #0x11	; 17
	.db #0x11	; 17
	.db #0x11	; 17
	.db #0x11	; 17
	.db #0x11	; 17
	.db #0x11	; 17
	.db #0x11	; 17
	.db #0x11	; 17
	.db #0x11	; 17
	.db #0x11	; 17
	.db #0x11	; 17
	.db #0x11	; 17
	.db #0x11	; 17
	.db #0x11	; 17
	.db #0x11	; 17
	.db #0x11	; 17
	.db #0x11	; 17
	.db #0x11	; 17
	.db #0x11	; 17
	.db #0x11	; 17
	.db #0x11	; 17
	.db #0x11	; 17
	.db #0x11	; 17
	.db #0x11	; 17
	.db #0x11	; 17
	.db #0x11	; 17
	.db #0x11	; 17
	.db #0x11	; 17
	.db #0x11	; 17
	.db #0x11	; 17
	.db #0x11	; 17
	.db #0x11	; 17
	.db #0x11	; 17
	.db #0x11	; 17
	.db #0x11	; 17
	.db #0x11	; 17
	.db #0x11	; 17
	.db #0x11	; 17
	.db #0x11	; 17
	.db #0x11	; 17
	.db #0x11	; 17
	.db #0x11	; 17
	.db #0x11	; 17
	.db #0x11	; 17
	.db #0x11	; 17
	.db #0x11	; 17
	.db #0x11	; 17
	.db #0x11	; 17
	.db #0x11	; 17
	.db #0x11	; 17
	.db #0x11	; 17
	.db #0x11	; 17
	.db #0x11	; 17
	.db #0x11	; 17
	.db #0x11	; 17
	.db #0x11	; 17
	.db #0x11	; 17
	.db #0x11	; 17
	.db #0x11	; 17
	.db #0x11	; 17
	.db #0x11	; 17
	.db #0x11	; 17
	.db #0x11	; 17
	.db #0x11	; 17
	.db #0x11	; 17
	.db #0x11	; 17
	.db #0x11	; 17
	.db #0x11	; 17
	.db #0x11	; 17
	.db #0x11	; 17
	.db #0x11	; 17
	.db #0x11	; 17
	.db #0x11	; 17
	.db #0x11	; 17
	.db #0x11	; 17
	.db #0x11	; 17
	.db #0x11	; 17
	.db #0x11	; 17
	.db #0x11	; 17
	.db #0x11	; 17
	.db #0x11	; 17
	.db #0x11	; 17
	.db #0x11	; 17
	.db #0x11	; 17
	.db #0x11	; 17
	.db #0x11	; 17
	.db #0x11	; 17
	.db #0x11	; 17
	.db #0x11	; 17
	.db #0x11	; 17
	.db #0x11	; 17
	.db #0x11	; 17
	.db #0x11	; 17
	.db #0x11	; 17
	.db #0x11	; 17
	.db #0x11	; 17
	.db #0x11	; 17
	.db #0x11	; 17
	.db #0x11	; 17
	.db #0x11	; 17
	.db #0x11	; 17
	.db #0x11	; 17
	.db #0x11	; 17
	.db #0x11	; 17
	.db #0x11	; 17
	.db #0x11	; 17
	.db #0x11	; 17
	.db #0x11	; 17
	.db #0x11	; 17
	.db #0x11	; 17
	.db #0x11	; 17
	.db #0x11	; 17
	.db #0x11	; 17
	.db #0x11	; 17
	.db #0xba	; 186
	.db #0xba	; 186
	.db #0xba	; 186
	.db #0xba	; 186
	.db #0x1c	; 28
	.db #0x1c	; 28
	.db #0x21	; 33
	.db #0x11	; 17
	.db #0x11	; 17
	.db #0x11	; 17
	.db #0x11	; 17
	.db #0x11	; 17
	.db #0x11	; 17
	.db #0x11	; 17
	.db #0x11	; 17
	.db #0x11	; 17
	.db #0x11	; 17
	.db #0x11	; 17
	.db #0x11	; 17
	.db #0x11	; 17
	.db #0x11	; 17
	.db #0x11	; 17
	.db #0x11	; 17
	.db #0x11	; 17
	.db #0x11	; 17
	.db #0x11	; 17
	.db #0x11	; 17
	.db #0x11	; 17
	.db #0x11	; 17
	.db #0x11	; 17
	.db #0x11	; 17
	.db #0x11	; 17
	.db #0x11	; 17
	.db #0x11	; 17
	.db #0x11	; 17
	.db #0x11	; 17
	.db #0x11	; 17
	.db #0x11	; 17
	.db #0x11	; 17
	.db #0x11	; 17
	.db #0x11	; 17
	.db #0x11	; 17
	.db #0x11	; 17
	.db #0x11	; 17
	.db #0x11	; 17
	.db #0x11	; 17
	.db #0x11	; 17
	.db #0x11	; 17
	.db #0x11	; 17
	.db #0x11	; 17
	.db #0x11	; 17
	.db #0x11	; 17
	.db #0x11	; 17
	.db #0x11	; 17
	.db #0x11	; 17
	.db #0x11	; 17
	.db #0x11	; 17
	.db #0x11	; 17
	.db #0x11	; 17
	.db #0x11	; 17
	.db #0x11	; 17
	.db #0x11	; 17
	.db #0x11	; 17
	.db #0x11	; 17
	.db #0x11	; 17
	.db #0x11	; 17
	.db #0x11	; 17
	.db #0x11	; 17
	.db #0x11	; 17
	.db #0x11	; 17
	.db #0x11	; 17
	.db #0x11	; 17
	.db #0x11	; 17
	.db #0x11	; 17
	.db #0x11	; 17
	.db #0x11	; 17
	.db #0x11	; 17
	.db #0x11	; 17
	.db #0x11	; 17
	.db #0x11	; 17
	.db #0x11	; 17
	.db #0x11	; 17
	.db #0x11	; 17
	.db #0x11	; 17
	.db #0x11	; 17
	.db #0x11	; 17
	.db #0x11	; 17
	.db #0x11	; 17
	.db #0x11	; 17
	.db #0x11	; 17
	.db #0x11	; 17
	.db #0x11	; 17
	.db #0x11	; 17
	.db #0x11	; 17
	.db #0x11	; 17
	.db #0x11	; 17
	.db #0x11	; 17
	.db #0x11	; 17
	.db #0x11	; 17
	.db #0x11	; 17
	.db #0x11	; 17
	.db #0x11	; 17
	.db #0x11	; 17
	.db #0x11	; 17
	.db #0x11	; 17
	.db #0x11	; 17
	.db #0x11	; 17
	.db #0x11	; 17
	.db #0x11	; 17
	.db #0x11	; 17
	.db #0x11	; 17
	.db #0x11	; 17
	.db #0x11	; 17
	.db #0x11	; 17
	.db #0x11	; 17
	.db #0x11	; 17
	.db #0x11	; 17
	.db #0x11	; 17
	.db #0x11	; 17
	.db #0x11	; 17
	.db #0x11	; 17
	.db #0x11	; 17
	.db #0x11	; 17
	.db #0x11	; 17
	.db #0x11	; 17
	.db #0x11	; 17
	.db #0x11	; 17
	.db #0x11	; 17
	.db #0x11	; 17
	.db #0x11	; 17
	.db #0x11	; 17
	.db #0x11	; 17
	.db #0x11	; 17
	.db #0x11	; 17
	.db #0x11	; 17
	.db #0x11	; 17
	.db #0x11	; 17
	.db #0x11	; 17
	.db #0x11	; 17
	.db #0x11	; 17
	.db #0x11	; 17
	.db #0x11	; 17
	.db #0x11	; 17
	.db #0x11	; 17
	.db #0x11	; 17
	.db #0x11	; 17
	.db #0x11	; 17
	.db #0x11	; 17
	.db #0x11	; 17
	.db #0x11	; 17
	.db #0x11	; 17
	.db #0x11	; 17
	.db #0x11	; 17
	.db #0x11	; 17
	.db #0x11	; 17
	.db #0x11	; 17
	.db #0x11	; 17
	.db #0x11	; 17
	.db #0x11	; 17
	.db #0x11	; 17
	.db #0x11	; 17
	.db #0x11	; 17
	.db #0x11	; 17
	.db #0x11	; 17
	.db #0x11	; 17
	.db #0x11	; 17
	.db #0x11	; 17
	.db #0x11	; 17
	.db #0x11	; 17
	.db #0x11	; 17
	.db #0x11	; 17
	.db #0x11	; 17
	.db #0x11	; 17
	.db #0x11	; 17
	.db #0x11	; 17
	.db #0x11	; 17
	.db #0x11	; 17
	.db #0x11	; 17
	.db #0x11	; 17
	.db #0x11	; 17
	.db #0x11	; 17
	.db #0x11	; 17
	.db #0x11	; 17
	.db #0x11	; 17
	.db #0x11	; 17
	.db #0x11	; 17
	.db #0x11	; 17
	.db #0x11	; 17
	.db #0x11	; 17
	.db #0x11	; 17
	.db #0x11	; 17
	.db #0x11	; 17
	.db #0x11	; 17
	.db #0x11	; 17
	.db #0x11	; 17
	.db #0x11	; 17
	.db #0x11	; 17
	.db #0x11	; 17
	.db #0x11	; 17
	.db #0x11	; 17
	.db #0x11	; 17
	.db #0x11	; 17
	.db #0x11	; 17
	.db #0x11	; 17
	.db #0x11	; 17
	.db #0x11	; 17
	.db #0x11	; 17
	.db #0x11	; 17
	.db #0x11	; 17
	.db #0x11	; 17
	.db #0x11	; 17
	.db #0x11	; 17
	.db #0x11	; 17
	.db #0x11	; 17
	.db #0x11	; 17
	.db #0x11	; 17
	.db #0x11	; 17
	.db #0x11	; 17
	.db #0x11	; 17
	.db #0x11	; 17
	.db #0x11	; 17
	.db #0x11	; 17
	.db #0x11	; 17
	.db #0x11	; 17
	.db #0x11	; 17
	.db #0x11	; 17
	.db #0x11	; 17
	.db #0x11	; 17
	.db #0x11	; 17
	.db #0x11	; 17
	.db #0x11	; 17
	.db #0x11	; 17
	.db #0x11	; 17
	.db #0x11	; 17
	.db #0x11	; 17
	.db #0x11	; 17
	.db #0x11	; 17
	.db #0x11	; 17
	.db #0x11	; 17
	.db #0x11	; 17
	.db #0x11	; 17
	.db #0x11	; 17
	.db #0x11	; 17
	.db #0x11	; 17
	.db #0x11	; 17
	.db #0x11	; 17
	.db #0x11	; 17
	.db #0x11	; 17
	.db #0x11	; 17
	.db #0x11	; 17
	.db #0x11	; 17
	.db #0x11	; 17
	.db #0x11	; 17
	.db #0x11	; 17
	.db #0x11	; 17
	.db #0x11	; 17
	G$my_isr$0$0	= .
	.globl	G$my_isr$0$0
	C$main.c$22$1_0$35	= .
	.globl	C$main.c$22$1_0$35
;main.c:22: void my_isr()
;	---------------------------------
; Function my_isr
; ---------------------------------
_my_isr::
	C$main.c$24$1_0$35	= .
	.globl	C$main.c$24$1_0$35
;main.c:24: g_counter++;	
	ld	hl, (_g_counter)
	inc	hl
	ld	(_g_counter), hl
	C$main.c$25$1_0$35	= .
	.globl	C$main.c$25$1_0$35
;main.c:25: }
	C$main.c$25$1_0$35	= .
	.globl	C$main.c$25$1_0$35
	XG$my_isr$0$0	= .
	.globl	XG$my_isr$0$0
	ret
	G$main$0$0	= .
	.globl	G$main$0$0
	C$main.c$27$1_0$36	= .
	.globl	C$main.c$27$1_0$36
;main.c:27: void main()
;	---------------------------------
; Function main
; ---------------------------------
_main::
	C$main.c$30$1_0$36	= .
	.globl	C$main.c$30$1_0$36
;main.c:30: ubox_init_isr(wait_tick);
	ld	l, #0x02
	call	_ubox_init_isr
	C$main.c$32$1_0$36	= .
	.globl	C$main.c$32$1_0$36
;main.c:32: ubox_set_mode(2);
	ld	l, #0x02
	call	_ubox_set_mode
	C$main.c$34$1_0$36	= .
	.globl	C$main.c$34$1_0$36
;main.c:34: ubox_set_colors(1, 1, 1);
	ld	de, #0x0101
	push	de
	ld	a, #0x01
	push	af
	inc	sp
	call	_ubox_set_colors
	pop	af
	inc	sp
	C$main.c$36$1_0$36	= .
	.globl	C$main.c$36$1_0$36
;main.c:36: ubox_disable_screen();
	call	_ubox_disable_screen
	C$main.c$38$1_0$36	= .
	.globl	C$main.c$38$1_0$36
;main.c:38: ubox_set_tiles(tiles);
	ld	hl, #_tiles
	call	_ubox_set_tiles
	C$main.c$39$1_0$36	= .
	.globl	C$main.c$39$1_0$36
;main.c:39: ubox_set_tiles_colors(tiles_colors);
	ld	hl, #_tiles_colors
	call	_ubox_set_tiles_colors
	C$main.c$41$1_0$36	= .
	.globl	C$main.c$41$1_0$36
;main.c:41: ubox_fill_screen(WHITESPACE_TILE);
	ld	l, #0x81
	call	_ubox_fill_screen
	C$main.c$42$1_0$36	= .
	.globl	C$main.c$42$1_0$36
;main.c:42: put_text(11, 11, "COUNT : ");
	ld	hl, #___str_0
	push	hl
	ld	de, #0x0b0b
	push	de
	call	_put_text
	pop	af
	pop	af
	C$main.c$43$1_0$36	= .
	.globl	C$main.c$43$1_0$36
;main.c:43: sprintf(buffer, "%d", g_count);
	ld	hl, (_g_count)
	push	hl
	ld	hl, #___str_1
	push	hl
	ld	hl, #_buffer
	push	hl
	call	_sprintf
	ld	hl, #6
	add	hl, sp
	ld	sp, hl
	C$main.c$44$1_0$36	= .
	.globl	C$main.c$44$1_0$36
;main.c:44: put_text(11 + 9, 11, buffer);
	ld	hl, #_buffer
	push	hl
	ld	de, #0x0b14
	push	de
	call	_put_text
	pop	af
	pop	af
	C$main.c$46$1_0$36	= .
	.globl	C$main.c$46$1_0$36
;main.c:46: ubox_enable_screen();
	call	_ubox_enable_screen
	C$main.c$47$1_0$36	= .
	.globl	C$main.c$47$1_0$36
;main.c:47: ubox_wvdp(1, 0xe2);
	ld	de, #0xe201
	push	de
	call	_ubox_wvdp
	pop	af
	C$main.c$49$1_0$36	= .
	.globl	C$main.c$49$1_0$36
;main.c:49: ubox_set_user_isr(my_isr);
	ld	hl, #_my_isr
	call	_ubox_set_user_isr
	C$main.c$51$1_0$36	= .
	.globl	C$main.c$51$1_0$36
;main.c:51: while (1)
00104$:
	C$main.c$54$1_0$36	= .
	.globl	C$main.c$54$1_0$36
;main.c:54: if((g_counter / wait_tick) == 50)
	ld	hl, #0x0002
	push	hl
	ld	hl, (_g_counter)
	push	hl
	call	__divsint
	pop	af
	pop	af
	ld	a, l
	sub	a, #0x32
	or	a, h
	jr	NZ,00102$
	C$main.c$56$3_0$38	= .
	.globl	C$main.c$56$3_0$38
;main.c:56: g_count++;
	ld	hl, (_g_count)
	inc	hl
	C$main.c$57$3_0$38	= .
	.globl	C$main.c$57$3_0$38
;main.c:57: sprintf(buffer, "%d", g_count);
	ld	(_g_count), hl
	push	hl
	ld	hl, #___str_1
	push	hl
	ld	hl, #_buffer
	push	hl
	call	_sprintf
	ld	hl, #6
	add	hl, sp
	ld	sp, hl
	C$main.c$58$3_0$38	= .
	.globl	C$main.c$58$3_0$38
;main.c:58: put_text(11 + 9, 11, buffer);
	ld	hl, #_buffer
	push	hl
	ld	de, #0x0b14
	push	de
	call	_put_text
	pop	af
	pop	af
	C$main.c$59$3_0$38	= .
	.globl	C$main.c$59$3_0$38
;main.c:59: g_counter = 0;
	ld	hl, #0x0000
	ld	(_g_counter), hl
00102$:
	C$main.c$62$2_0$37	= .
	.globl	C$main.c$62$2_0$37
;main.c:62: ubox_wait();
	call	_ubox_wait
	C$main.c$65$1_0$36	= .
	.globl	C$main.c$65$1_0$36
;main.c:65: }
	C$main.c$65$1_0$36	= .
	.globl	C$main.c$65$1_0$36
	XG$main$0$0	= .
	.globl	XG$main$0$0
	jr	00104$
Fmain$__str_0$0_0$0 == .
___str_0:
	.ascii "COUNT : "
	.db 0x00
Fmain$__str_1$0_0$0 == .
___str_1:
	.ascii "%d"
	.db 0x00
	.area _CODE
	.area _INITIALIZER
Fmain$__xinit_g_count$0_0$0 == .
__xinit__g_count:
	.dw #0x0000
Fmain$__xinit_g_counter$0_0$0 == .
__xinit__g_counter:
	.dw #0x0000
	.area _CABS (ABS)
