;--------------------------------------------------------
; File Created by SDCC : free open source ANSI-C Compiler
; Version 4.0.0 #11528 (Linux)
;--------------------------------------------------------
	.module main
	.optsdcc -mz80
	
;--------------------------------------------------------
; Public variables in this module
;--------------------------------------------------------
	.globl _main
	.globl _put_text_hc
	.globl _mplayer_stop
	.globl _mplayer_play
	.globl _mplayer_init
	.globl _ubox_read_keys
	.globl _ubox_wait
	.globl _ubox_set_user_isr
	.globl _ubox_init_isr
	.globl _ubox_fill_screen
	.globl _ubox_set_tiles_colors
	.globl _ubox_set_tiles
	.globl _ubox_set_colors
	.globl _ubox_disable_screen
	.globl _ubox_enable_screen
	.globl _ubox_set_mode
	.globl _tiles_colors
	.globl _tiles
;--------------------------------------------------------
; special function registers
;--------------------------------------------------------
;--------------------------------------------------------
; ram data
;--------------------------------------------------------
	.area _DATA
;--------------------------------------------------------
; ram data
;--------------------------------------------------------
	.area _INITIALIZED
;--------------------------------------------------------
; absolute external ram data
;--------------------------------------------------------
	.area _DABS (ABS)
;--------------------------------------------------------
; global & static initialisations
;--------------------------------------------------------
	.area _HOME
	.area _GSINIT
	.area _GSFINAL
	.area _GSINIT
;--------------------------------------------------------
; Home
;--------------------------------------------------------
	.area _HOME
	.area _HOME
;--------------------------------------------------------
; code
;--------------------------------------------------------
	.area _CODE
	G$main$0$0	= .
	.globl	G$main$0$0
	C$main.c$16$0_0$31	= .
	.globl	C$main.c$16$0_0$31
;main.c:16: void main()
;	---------------------------------
; Function main
; ---------------------------------
_main::
	C$main.c$19$1_0$31	= .
	.globl	C$main.c$19$1_0$31
;main.c:19: ubox_init_isr(2);
	ld	l, #0x02
	call	_ubox_init_isr
	C$main.c$21$1_0$31	= .
	.globl	C$main.c$21$1_0$31
;main.c:21: ubox_set_mode(2);
	ld	l, #0x02
	call	_ubox_set_mode
	C$main.c$23$1_0$31	= .
	.globl	C$main.c$23$1_0$31
;main.c:23: ubox_set_colors(1, 1, 1);
	ld	de, #0x0101
	push	de
	ld	a, #0x01
	push	af
	inc	sp
	call	_ubox_set_colors
	pop	af
	inc	sp
	C$main.c$25$1_0$31	= .
	.globl	C$main.c$25$1_0$31
;main.c:25: ubox_disable_screen();
	call	_ubox_disable_screen
	C$main.c$27$1_0$31	= .
	.globl	C$main.c$27$1_0$31
;main.c:27: ubox_set_tiles(tiles);
	ld	hl, #_tiles
	call	_ubox_set_tiles
	C$main.c$28$1_0$31	= .
	.globl	C$main.c$28$1_0$31
;main.c:28: ubox_set_tiles_colors(tiles_colors);
	ld	hl, #_tiles_colors
	call	_ubox_set_tiles_colors
	C$main.c$30$1_0$31	= .
	.globl	C$main.c$30$1_0$31
;main.c:30: ubox_fill_screen(WHITESPACE_TILE);    
	ld	l, #0x81
	call	_ubox_fill_screen
	C$main.c$31$1_0$31	= .
	.globl	C$main.c$31$1_0$31
;main.c:31: put_text_hc(VC, TITLE);		    
	ld	hl, #___str_0
	push	hl
	ld	a, #0x0b
	push	af
	inc	sp
	call	_put_text_hc
	C$main.c$32$1_0$31	= .
	.globl	C$main.c$32$1_0$31
;main.c:32: put_text_hc(VC + 2, "PRESS ESC TO STOP");
	inc	sp
	ld	hl,#___str_1
	ex	(sp),hl
	ld	a, #0x0d
	push	af
	inc	sp
	call	_put_text_hc
	pop	af
	inc	sp
	C$main.c$33$1_0$31	= .
	.globl	C$main.c$33$1_0$31
;main.c:33: ubox_enable_screen();
	call	_ubox_enable_screen
	C$main.c$35$1_0$31	= .
	.globl	C$main.c$35$1_0$31
;main.c:35: mplayer_init(SONG, 0);
	xor	a, a
	push	af
	inc	sp
	ld	hl, #_SONG
	push	hl
	call	_mplayer_init
	pop	af
	inc	sp
	C$main.c$37$1_0$31	= .
	.globl	C$main.c$37$1_0$31
;main.c:37: ubox_set_user_isr(mplayer_play);
	ld	hl, #_mplayer_play
	call	_ubox_set_user_isr
	C$main.c$39$1_0$31	= .
	.globl	C$main.c$39$1_0$31
;main.c:39: mplayer_play();
	call	_mplayer_play
	C$main.c$41$1_0$31	= .
	.globl	C$main.c$41$1_0$31
;main.c:41: while (1)
00104$:
	C$main.c$43$2_0$32	= .
	.globl	C$main.c$43$2_0$32
;main.c:43: if (ubox_read_keys(7) == UBOX_MSX_KEY_ESC)
	ld	l, #0x07
	call	_ubox_read_keys
	ld	a, l
	sub	a, #0x04
	jr	NZ,00102$
	C$main.c$45$3_0$33	= .
	.globl	C$main.c$45$3_0$33
;main.c:45: put_text_hc(VC, "SORRY, CAN'T STOP PLAYING MUSIC");
	ld	hl, #___str_2
	push	hl
	ld	a, #0x0b
	push	af
	inc	sp
	call	_put_text_hc
	pop	af
	inc	sp
	C$main.c$46$3_0$33	= .
	.globl	C$main.c$46$3_0$33
;main.c:46: mplayer_stop();
	C$main.c$47$3_0$33	= .
	.globl	C$main.c$47$3_0$33
;main.c:47: break;
	jp	_mplayer_stop
00102$:
	C$main.c$49$2_0$32	= .
	.globl	C$main.c$49$2_0$32
;main.c:49: ubox_wait();
	call	_ubox_wait
	C$main.c$51$1_0$31	= .
	.globl	C$main.c$51$1_0$31
;main.c:51: }
	C$main.c$51$1_0$31	= .
	.globl	C$main.c$51$1_0$31
	XG$main$0$0	= .
	.globl	XG$main$0$0
	jr	00104$
G$tiles$0_0$0 == .
_tiles:
	.db #0x00	; 0
	.db #0x00	; 0
	.db #0x00	; 0
	.db #0x00	; 0
	.db #0x00	; 0
	.db #0x00	; 0
	.db #0x00	; 0
	.db #0x00	; 0
	.db #0x00	; 0
	.db #0x00	; 0
	.db #0x00	; 0
	.db #0x00	; 0
	.db #0x00	; 0
	.db #0x00	; 0
	.db #0x00	; 0
	.db #0x00	; 0
	.db #0x00	; 0
	.db #0x00	; 0
	.db #0x00	; 0
	.db #0x00	; 0
	.db #0x00	; 0
	.db #0x00	; 0
	.db #0x00	; 0
	.db #0x00	; 0
	.db #0x00	; 0
	.db #0x00	; 0
	.db #0x00	; 0
	.db #0x00	; 0
	.db #0x00	; 0
	.db #0x00	; 0
	.db #0x00	; 0
	.db #0x00	; 0
	.db #0x00	; 0
	.db #0x00	; 0
	.db #0x00	; 0
	.db #0x00	; 0
	.db #0x00	; 0
	.db #0x00	; 0
	.db #0x00	; 0
	.db #0x00	; 0
	.db #0xaa	; 170
	.db #0xd5	; 213
	.db #0x00	; 0
	.db #0x00	; 0
	.db #0xd5	; 213
	.db #0xaa	; 170
	.db #0x00	; 0
	.db #0x00	; 0
	.db #0xaa	; 170
	.db #0x56	; 86	'V'
	.db #0xfe	; 254
	.db #0xfe	; 254
	.db #0x56	; 86	'V'
	.db #0xaa	; 170
	.db #0x00	; 0
	.db #0x00	; 0
	.db #0x24	; 36
	.db #0x48	; 72	'H'
	.db #0x90	; 144
	.db #0x20	; 32
	.db #0x40	; 64
	.db #0x80	; 128
	.db #0x00	; 0
	.db #0x00	; 0
	.db #0x01	; 1
	.db #0x03	; 3
	.db #0x05	; 5
	.db #0x09	; 9
	.db #0x13	; 19
	.db #0x25	; 37
	.db #0x49	; 73	'I'
	.db #0x00	; 0
	.db #0x20	; 32
	.db #0x10	; 16
	.db #0x20	; 32
	.db #0x10	; 16
	.db #0x20	; 32
	.db #0x10	; 16
	.db #0x00	; 0
	.db #0x00	; 0
	.db #0x11	; 17
	.db #0x09	; 9
	.db #0x11	; 17
	.db #0x09	; 9
	.db #0x11	; 17
	.db #0x09	; 9
	.db #0x00	; 0
	.db #0x00	; 0
	.db #0x00	; 0
	.db #0x00	; 0
	.db #0x00	; 0
	.db #0x00	; 0
	.db #0x00	; 0
	.db #0x00	; 0
	.db #0x00	; 0
	.db #0x00	; 0
	.db #0x00	; 0
	.db #0x55	; 85	'U'
	.db #0x00	; 0
	.db #0x00	; 0
	.db #0x00	; 0
	.db #0x00	; 0
	.db #0x00	; 0
	.db #0x00	; 0
	.db #0x00	; 0
	.db #0x55	; 85	'U'
	.db #0x00	; 0
	.db #0x7f	; 127
	.db #0x00	; 0
	.db #0x7f	; 127
	.db #0x00	; 0
	.db #0x00	; 0
	.db #0x7f	; 127
	.db #0x00	; 0
	.db #0x7f	; 127
	.db #0x00	; 0
	.db #0x7f	; 127
	.db #0x00	; 0
	.db #0x7f	; 127
	.db #0x00	; 0
	.db #0xfd	; 253
	.db #0x00	; 0
	.db #0xfd	; 253
	.db #0x00	; 0
	.db #0xfd	; 253
	.db #0x00	; 0
	.db #0xfd	; 253
	.db #0x00	; 0
	.db #0x00	; 0
	.db #0x00	; 0
	.db #0x00	; 0
	.db #0x00	; 0
	.db #0x00	; 0
	.db #0x00	; 0
	.db #0x00	; 0
	.db #0x00	; 0
	.db #0x00	; 0
	.db #0x00	; 0
	.db #0x00	; 0
	.db #0x00	; 0
	.db #0x00	; 0
	.db #0x00	; 0
	.db #0x00	; 0
	.db #0x00	; 0
	.db #0x00	; 0
	.db #0x00	; 0
	.db #0x00	; 0
	.db #0x00	; 0
	.db #0x00	; 0
	.db #0x00	; 0
	.db #0x00	; 0
	.db #0x00	; 0
	.db #0x00	; 0
	.db #0x00	; 0
	.db #0x00	; 0
	.db #0x00	; 0
	.db #0x00	; 0
	.db #0x00	; 0
	.db #0x00	; 0
	.db #0x00	; 0
	.db #0x00	; 0
	.db #0x00	; 0
	.db #0x00	; 0
	.db #0x00	; 0
	.db #0x00	; 0
	.db #0x00	; 0
	.db #0x00	; 0
	.db #0x00	; 0
	.db #0x00	; 0
	.db #0x00	; 0
	.db #0x00	; 0
	.db #0x00	; 0
	.db #0x00	; 0
	.db #0x00	; 0
	.db #0x00	; 0
	.db #0x00	; 0
	.db #0x00	; 0
	.db #0x00	; 0
	.db #0x00	; 0
	.db #0x00	; 0
	.db #0x00	; 0
	.db #0x00	; 0
	.db #0x00	; 0
	.db #0x00	; 0
	.db #0x00	; 0
	.db #0x00	; 0
	.db #0x00	; 0
	.db #0x00	; 0
	.db #0x00	; 0
	.db #0x00	; 0
	.db #0x00	; 0
	.db #0x00	; 0
	.db #0x00	; 0
	.db #0x00	; 0
	.db #0x00	; 0
	.db #0x00	; 0
	.db #0x00	; 0
	.db #0x00	; 0
	.db #0x00	; 0
	.db #0x00	; 0
	.db #0x00	; 0
	.db #0x00	; 0
	.db #0x00	; 0
	.db #0x00	; 0
	.db #0x00	; 0
	.db #0x00	; 0
	.db #0x00	; 0
	.db #0x00	; 0
	.db #0x00	; 0
	.db #0x00	; 0
	.db #0x00	; 0
	.db #0x00	; 0
	.db #0x00	; 0
	.db #0x00	; 0
	.db #0x00	; 0
	.db #0x00	; 0
	.db #0x00	; 0
	.db #0x00	; 0
	.db #0x00	; 0
	.db #0x00	; 0
	.db #0x00	; 0
	.db #0x00	; 0
	.db #0x00	; 0
	.db #0x00	; 0
	.db #0x00	; 0
	.db #0x00	; 0
	.db #0x00	; 0
	.db #0x00	; 0
	.db #0x00	; 0
	.db #0x00	; 0
	.db #0x00	; 0
	.db #0x00	; 0
	.db #0x00	; 0
	.db #0x00	; 0
	.db #0x00	; 0
	.db #0x00	; 0
	.db #0x00	; 0
	.db #0x00	; 0
	.db #0x00	; 0
	.db #0x00	; 0
	.db #0x00	; 0
	.db #0x00	; 0
	.db #0x00	; 0
	.db #0x00	; 0
	.db #0x00	; 0
	.db #0x00	; 0
	.db #0x00	; 0
	.db #0x00	; 0
	.db #0x00	; 0
	.db #0x00	; 0
	.db #0x00	; 0
	.db #0x00	; 0
	.db #0x00	; 0
	.db #0x00	; 0
	.db #0x00	; 0
	.db #0x00	; 0
	.db #0x00	; 0
	.db #0x00	; 0
	.db #0x00	; 0
	.db #0x01	; 1
	.db #0x07	; 7
	.db #0x0f	; 15
	.db #0x1f	; 31
	.db #0x1e	; 30
	.db #0x00	; 0
	.db #0x00	; 0
	.db #0x00	; 0
	.db #0xf8	; 248
	.db #0xfe	; 254
	.db #0x00	; 0
	.db #0x0f	; 15
	.db #0x07	; 7
	.db #0x00	; 0
	.db #0x00	; 0
	.db #0x00	; 0
	.db #0x0f	; 15
	.db #0x0f	; 15
	.db #0x0f	; 15
	.db #0x0f	; 15
	.db #0x8e	; 142
	.db #0x00	; 0
	.db #0x00	; 0
	.db #0x00	; 0
	.db #0xfc	; 252
	.db #0x00	; 0
	.db #0x00	; 0
	.db #0x07	; 7
	.db #0x07	; 7
	.db #0x00	; 0
	.db #0x00	; 0
	.db #0x00	; 0
	.db #0x0f	; 15
	.db #0x0f	; 15
	.db #0x0f	; 15
	.db #0x8f	; 143
	.db #0x8e	; 142
	.db #0x00	; 0
	.db #0x00	; 0
	.db #0x00	; 0
	.db #0x00	; 0
	.db #0x00	; 0
	.db #0x00	; 0
	.db #0x00	; 0
	.db #0x00	; 0
	.db #0x00	; 0
	.db #0x00	; 0
	.db #0x00	; 0
	.db #0x3f	; 63
	.db #0x3f	; 63
	.db #0x3f	; 63
	.db #0x3c	; 60
	.db #0x38	; 56	'8'
	.db #0x00	; 0
	.db #0x00	; 0
	.db #0x00	; 0
	.db #0xfc	; 252
	.db #0xfc	; 252
	.db #0xfc	; 252
	.db #0x00	; 0
	.db #0x00	; 0
	.db #0x00	; 0
	.db #0x00	; 0
	.db #0x00	; 0
	.db #0xf0	; 240
	.db #0xf8	; 248
	.db #0xf8	; 248
	.db #0xfc	; 252
	.db #0xfc	; 252
	.db #0x00	; 0
	.db #0x00	; 0
	.db #0x00	; 0
	.db #0x1e	; 30
	.db #0x1e	; 30
	.db #0x1e	; 30
	.db #0x1c	; 28
	.db #0x1c	; 28
	.db #0x00	; 0
	.db #0x00	; 0
	.db #0x00	; 0
	.db #0x00	; 0
	.db #0x00	; 0
	.db #0x00	; 0
	.db #0x00	; 0
	.db #0x00	; 0
	.db #0x00	; 0
	.db #0x00	; 0
	.db #0x00	; 0
	.db #0x00	; 0
	.db #0x00	; 0
	.db #0x00	; 0
	.db #0x00	; 0
	.db #0x00	; 0
	.db #0x00	; 0
	.db #0x00	; 0
	.db #0x00	; 0
	.db #0x00	; 0
	.db #0x00	; 0
	.db #0x00	; 0
	.db #0x00	; 0
	.db #0x00	; 0
	.db #0x00	; 0
	.db #0x00	; 0
	.db #0x00	; 0
	.db #0x00	; 0
	.db #0x00	; 0
	.db #0x00	; 0
	.db #0x00	; 0
	.db #0x00	; 0
	.db #0x00	; 0
	.db #0x00	; 0
	.db #0x00	; 0
	.db #0x00	; 0
	.db #0x00	; 0
	.db #0x00	; 0
	.db #0x00	; 0
	.db #0x00	; 0
	.db #0x00	; 0
	.db #0x00	; 0
	.db #0x00	; 0
	.db #0x00	; 0
	.db #0x00	; 0
	.db #0x00	; 0
	.db #0x00	; 0
	.db #0x00	; 0
	.db #0x00	; 0
	.db #0x00	; 0
	.db #0x00	; 0
	.db #0x00	; 0
	.db #0x00	; 0
	.db #0x00	; 0
	.db #0x00	; 0
	.db #0x00	; 0
	.db #0x00	; 0
	.db #0x00	; 0
	.db #0x00	; 0
	.db #0x00	; 0
	.db #0x00	; 0
	.db #0x00	; 0
	.db #0x00	; 0
	.db #0x00	; 0
	.db #0x00	; 0
	.db #0x00	; 0
	.db #0x00	; 0
	.db #0x00	; 0
	.db #0x00	; 0
	.db #0x00	; 0
	.db #0x00	; 0
	.db #0x00	; 0
	.db #0x00	; 0
	.db #0x00	; 0
	.db #0x00	; 0
	.db #0x00	; 0
	.db #0x00	; 0
	.db #0x00	; 0
	.db #0x00	; 0
	.db #0x00	; 0
	.db #0x00	; 0
	.db #0x00	; 0
	.db #0x00	; 0
	.db #0x00	; 0
	.db #0x00	; 0
	.db #0x00	; 0
	.db #0x00	; 0
	.db #0x00	; 0
	.db #0x00	; 0
	.db #0x00	; 0
	.db #0x00	; 0
	.db #0x00	; 0
	.db #0x00	; 0
	.db #0x00	; 0
	.db #0x00	; 0
	.db #0x00	; 0
	.db #0x00	; 0
	.db #0x00	; 0
	.db #0x00	; 0
	.db #0x00	; 0
	.db #0x00	; 0
	.db #0x00	; 0
	.db #0x00	; 0
	.db #0x00	; 0
	.db #0x00	; 0
	.db #0x00	; 0
	.db #0x00	; 0
	.db #0x00	; 0
	.db #0x00	; 0
	.db #0x00	; 0
	.db #0x00	; 0
	.db #0x00	; 0
	.db #0x00	; 0
	.db #0x00	; 0
	.db #0x00	; 0
	.db #0x00	; 0
	.db #0x00	; 0
	.db #0x00	; 0
	.db #0x00	; 0
	.db #0x00	; 0
	.db #0x00	; 0
	.db #0x00	; 0
	.db #0x00	; 0
	.db #0x00	; 0
	.db #0x00	; 0
	.db #0x00	; 0
	.db #0x00	; 0
	.db #0x00	; 0
	.db #0x00	; 0
	.db #0x00	; 0
	.db #0x00	; 0
	.db #0x00	; 0
	.db #0x00	; 0
	.db #0x00	; 0
	.db #0x00	; 0
	.db #0x00	; 0
	.db #0x00	; 0
	.db #0x00	; 0
	.db #0x00	; 0
	.db #0x00	; 0
	.db #0x00	; 0
	.db #0x00	; 0
	.db #0x00	; 0
	.db #0x00	; 0
	.db #0x00	; 0
	.db #0x00	; 0
	.db #0x00	; 0
	.db #0x00	; 0
	.db #0x00	; 0
	.db #0x00	; 0
	.db #0x00	; 0
	.db #0x00	; 0
	.db #0x00	; 0
	.db #0x00	; 0
	.db #0x00	; 0
	.db #0x00	; 0
	.db #0x00	; 0
	.db #0x00	; 0
	.db #0x00	; 0
	.db #0x00	; 0
	.db #0x00	; 0
	.db #0x00	; 0
	.db #0x00	; 0
	.db #0x00	; 0
	.db #0x00	; 0
	.db #0x00	; 0
	.db #0x00	; 0
	.db #0x00	; 0
	.db #0x00	; 0
	.db #0x00	; 0
	.db #0x00	; 0
	.db #0x00	; 0
	.db #0x00	; 0
	.db #0x00	; 0
	.db #0x00	; 0
	.db #0x00	; 0
	.db #0x3c	; 60
	.db #0x3c	; 60
	.db #0x3c	; 60
	.db #0x78	; 120	'x'
	.db #0x78	; 120	'x'
	.db #0x78	; 120	'x'
	.db #0x78	; 120	'x'
	.db #0x78	; 120	'x'
	.db #0x07	; 7
	.db #0x00	; 0
	.db #0x00	; 0
	.db #0x7f	; 127
	.db #0x7f	; 127
	.db #0x7f	; 127
	.db #0x0f	; 15
	.db #0x0e	; 14
	.db #0x9e	; 158
	.db #0x1e	; 30
	.db #0x1e	; 30
	.db #0x1f	; 31
	.db #0x1f	; 31
	.db #0x1f	; 31
	.db #0x3c	; 60
	.db #0x3c	; 60
	.db #0x07	; 7
	.db #0x07	; 7
	.db #0x0f	; 15
	.db #0xfe	; 254
	.db #0xfc	; 252
	.db #0xf8	; 248
	.db #0x78	; 120	'x'
	.db #0x3c	; 60
	.db #0x9e	; 158
	.db #0x9e	; 158
	.db #0x1f	; 31
	.db #0x1f	; 31
	.db #0x1f	; 31
	.db #0x1c	; 28
	.db #0x3c	; 60
	.db #0x3c	; 60
	.db #0x00	; 0
	.db #0x00	; 0
	.db #0xfc	; 252
	.db #0xfc	; 252
	.db #0xfc	; 252
	.db #0x00	; 0
	.db #0x00	; 0
	.db #0x00	; 0
	.db #0x78	; 120	'x'
	.db #0x78	; 120	'x'
	.db #0x7f	; 127
	.db #0x7f	; 127
	.db #0x7f	; 127
	.db #0x70	; 112	'p'
	.db #0xf0	; 240
	.db #0xf0	; 240
	.db #0x01	; 1
	.db #0x01	; 1
	.db #0xf1	; 241
	.db #0xf1	; 241
	.db #0xf1	; 241
	.db #0x01	; 1
	.db #0x03	; 3
	.db #0x03	; 3
	.db #0xfc	; 252
	.db #0xfe	; 254
	.db #0xee	; 238
	.db #0xef	; 239
	.db #0xe7	; 231
	.db #0xc7	; 199
	.db #0xc7	; 199
	.db #0xc3	; 195
	.db #0x3c	; 60
	.db #0x3c	; 60
	.db #0x3c	; 60
	.db #0x3c	; 60
	.db #0x38	; 56	'8'
	.db #0xf8	; 248
	.db #0xf8	; 248
	.db #0xf8	; 248
	.db #0x00	; 0
	.db #0x00	; 0
	.db #0x00	; 0
	.db #0x00	; 0
	.db #0x00	; 0
	.db #0x00	; 0
	.db #0x00	; 0
	.db #0x00	; 0
	.db #0x00	; 0
	.db #0x00	; 0
	.db #0x00	; 0
	.db #0x00	; 0
	.db #0x00	; 0
	.db #0x00	; 0
	.db #0x00	; 0
	.db #0x00	; 0
	.db #0x00	; 0
	.db #0x00	; 0
	.db #0x00	; 0
	.db #0x00	; 0
	.db #0x00	; 0
	.db #0x00	; 0
	.db #0x00	; 0
	.db #0x00	; 0
	.db #0x00	; 0
	.db #0x00	; 0
	.db #0x00	; 0
	.db #0x00	; 0
	.db #0x00	; 0
	.db #0x00	; 0
	.db #0x00	; 0
	.db #0x00	; 0
	.db #0x00	; 0
	.db #0x00	; 0
	.db #0x00	; 0
	.db #0x00	; 0
	.db #0x00	; 0
	.db #0x00	; 0
	.db #0x00	; 0
	.db #0x00	; 0
	.db #0x00	; 0
	.db #0x00	; 0
	.db #0x00	; 0
	.db #0x00	; 0
	.db #0x00	; 0
	.db #0x00	; 0
	.db #0x00	; 0
	.db #0x00	; 0
	.db #0x00	; 0
	.db #0x00	; 0
	.db #0x00	; 0
	.db #0x00	; 0
	.db #0x00	; 0
	.db #0x00	; 0
	.db #0x00	; 0
	.db #0x00	; 0
	.db #0x00	; 0
	.db #0x00	; 0
	.db #0x00	; 0
	.db #0x00	; 0
	.db #0x00	; 0
	.db #0x00	; 0
	.db #0x00	; 0
	.db #0x00	; 0
	.db #0x00	; 0
	.db #0x00	; 0
	.db #0x00	; 0
	.db #0x00	; 0
	.db #0x00	; 0
	.db #0x00	; 0
	.db #0x00	; 0
	.db #0x00	; 0
	.db #0x00	; 0
	.db #0x00	; 0
	.db #0x00	; 0
	.db #0x00	; 0
	.db #0x00	; 0
	.db #0x00	; 0
	.db #0x00	; 0
	.db #0x00	; 0
	.db #0x00	; 0
	.db #0x00	; 0
	.db #0x00	; 0
	.db #0x00	; 0
	.db #0x00	; 0
	.db #0x00	; 0
	.db #0x00	; 0
	.db #0x00	; 0
	.db #0x00	; 0
	.db #0x00	; 0
	.db #0x00	; 0
	.db #0x00	; 0
	.db #0x00	; 0
	.db #0x00	; 0
	.db #0x00	; 0
	.db #0x00	; 0
	.db #0x00	; 0
	.db #0x00	; 0
	.db #0x00	; 0
	.db #0x00	; 0
	.db #0x00	; 0
	.db #0x00	; 0
	.db #0x00	; 0
	.db #0x00	; 0
	.db #0x00	; 0
	.db #0x00	; 0
	.db #0x00	; 0
	.db #0x00	; 0
	.db #0x00	; 0
	.db #0x00	; 0
	.db #0x00	; 0
	.db #0x00	; 0
	.db #0x00	; 0
	.db #0x00	; 0
	.db #0x00	; 0
	.db #0x00	; 0
	.db #0x00	; 0
	.db #0x00	; 0
	.db #0x00	; 0
	.db #0x00	; 0
	.db #0x00	; 0
	.db #0x00	; 0
	.db #0x00	; 0
	.db #0x00	; 0
	.db #0x00	; 0
	.db #0x00	; 0
	.db #0x00	; 0
	.db #0x00	; 0
	.db #0x00	; 0
	.db #0x00	; 0
	.db #0x00	; 0
	.db #0x00	; 0
	.db #0x00	; 0
	.db #0x00	; 0
	.db #0x00	; 0
	.db #0x00	; 0
	.db #0x00	; 0
	.db #0x00	; 0
	.db #0x00	; 0
	.db #0x00	; 0
	.db #0x00	; 0
	.db #0x00	; 0
	.db #0x00	; 0
	.db #0x00	; 0
	.db #0x00	; 0
	.db #0x00	; 0
	.db #0x00	; 0
	.db #0x00	; 0
	.db #0x00	; 0
	.db #0x00	; 0
	.db #0x00	; 0
	.db #0x00	; 0
	.db #0x00	; 0
	.db #0x00	; 0
	.db #0x00	; 0
	.db #0x00	; 0
	.db #0x00	; 0
	.db #0x00	; 0
	.db #0x00	; 0
	.db #0x00	; 0
	.db #0x00	; 0
	.db #0x00	; 0
	.db #0x00	; 0
	.db #0x00	; 0
	.db #0x00	; 0
	.db #0x00	; 0
	.db #0x00	; 0
	.db #0x00	; 0
	.db #0x00	; 0
	.db #0x00	; 0
	.db #0x00	; 0
	.db #0x00	; 0
	.db #0x00	; 0
	.db #0x00	; 0
	.db #0x00	; 0
	.db #0x00	; 0
	.db #0xc7	; 199
	.db #0xc3	; 195
	.db #0xe0	; 224
	.db #0xe0	; 224
	.db #0xf8	; 248
	.db #0x00	; 0
	.db #0x00	; 0
	.db #0x00	; 0
	.db #0xe1	; 225
	.db #0xe1	; 225
	.db #0x01	; 1
	.db #0x03	; 3
	.db #0x1f	; 31
	.db #0x00	; 0
	.db #0x00	; 0
	.db #0x00	; 0
	.db #0xc3	; 195
	.db #0xc3	; 195
	.db #0xc7	; 199
	.db #0xc7	; 199
	.db #0x87	; 135
	.db #0x00	; 0
	.db #0x00	; 0
	.db #0x00	; 0
	.db #0xc3	; 195
	.db #0xc3	; 195
	.db #0xe1	; 225
	.db #0xe1	; 225
	.db #0xe1	; 225
	.db #0x00	; 0
	.db #0x00	; 0
	.db #0x00	; 0
	.db #0xc3	; 195
	.db #0xc3	; 195
	.db #0xc0	; 192
	.db #0xc0	; 192
	.db #0x80	; 128
	.db #0x00	; 0
	.db #0x00	; 0
	.db #0x00	; 0
	.db #0x00	; 0
	.db #0x00	; 0
	.db #0x03	; 3
	.db #0x03	; 3
	.db #0x06	; 6
	.db #0x00	; 0
	.db #0x00	; 0
	.db #0x00	; 0
	.db #0x0f	; 15
	.db #0x0f	; 15
	.db #0x00	; 0
	.db #0x00	; 0
	.db #0x00	; 0
	.db #0x00	; 0
	.db #0x00	; 0
	.db #0x00	; 0
	.db #0xfc	; 252
	.db #0xfc	; 252
	.db #0x0c	; 12
	.db #0x0c	; 12
	.db #0x18	; 24
	.db #0x00	; 0
	.db #0x00	; 0
	.db #0x00	; 0
	.db #0x3c	; 60
	.db #0x3e	; 62
	.db #0x7e	; 126
	.db #0x7f	; 127
	.db #0x7f	; 127
	.db #0x00	; 0
	.db #0x00	; 0
	.db #0x00	; 0
	.db #0x07	; 7
	.db #0x07	; 7
	.db #0x0f	; 15
	.db #0x0f	; 15
	.db #0x0f	; 15
	.db #0x00	; 0
	.db #0x00	; 0
	.db #0x00	; 0
	.db #0x00	; 0
	.db #0x00	; 0
	.db #0x00	; 0
	.db #0x00	; 0
	.db #0x00	; 0
	.db #0x00	; 0
	.db #0x00	; 0
	.db #0x00	; 0
	.db #0x00	; 0
	.db #0x00	; 0
	.db #0x00	; 0
	.db #0x00	; 0
	.db #0x00	; 0
	.db #0x00	; 0
	.db #0x00	; 0
	.db #0x00	; 0
	.db #0x00	; 0
	.db #0x00	; 0
	.db #0x00	; 0
	.db #0x00	; 0
	.db #0x00	; 0
	.db #0x00	; 0
	.db #0x00	; 0
	.db #0x00	; 0
	.db #0x00	; 0
	.db #0x00	; 0
	.db #0x00	; 0
	.db #0x00	; 0
	.db #0x00	; 0
	.db #0x00	; 0
	.db #0x00	; 0
	.db #0x00	; 0
	.db #0x00	; 0
	.db #0x00	; 0
	.db #0x00	; 0
	.db #0x00	; 0
	.db #0x00	; 0
	.db #0x00	; 0
	.db #0x00	; 0
	.db #0x00	; 0
	.db #0x00	; 0
	.db #0x00	; 0
	.db #0x00	; 0
	.db #0x00	; 0
	.db #0x00	; 0
	.db #0x00	; 0
	.db #0x00	; 0
	.db #0x00	; 0
	.db #0x00	; 0
	.db #0x00	; 0
	.db #0x00	; 0
	.db #0x00	; 0
	.db #0x00	; 0
	.db #0x00	; 0
	.db #0x00	; 0
	.db #0x00	; 0
	.db #0x00	; 0
	.db #0x00	; 0
	.db #0x00	; 0
	.db #0x00	; 0
	.db #0x00	; 0
	.db #0x00	; 0
	.db #0x00	; 0
	.db #0x00	; 0
	.db #0x00	; 0
	.db #0x00	; 0
	.db #0x00	; 0
	.db #0x00	; 0
	.db #0x00	; 0
	.db #0x00	; 0
	.db #0x00	; 0
	.db #0x00	; 0
	.db #0x00	; 0
	.db #0x00	; 0
	.db #0x00	; 0
	.db #0x00	; 0
	.db #0x00	; 0
	.db #0x00	; 0
	.db #0x00	; 0
	.db #0x00	; 0
	.db #0x00	; 0
	.db #0x00	; 0
	.db #0x00	; 0
	.db #0x00	; 0
	.db #0x00	; 0
	.db #0x00	; 0
	.db #0x00	; 0
	.db #0x00	; 0
	.db #0x00	; 0
	.db #0x00	; 0
	.db #0x00	; 0
	.db #0x00	; 0
	.db #0x00	; 0
	.db #0x00	; 0
	.db #0x00	; 0
	.db #0x00	; 0
	.db #0x00	; 0
	.db #0x00	; 0
	.db #0x00	; 0
	.db #0x00	; 0
	.db #0x00	; 0
	.db #0x00	; 0
	.db #0x00	; 0
	.db #0x00	; 0
	.db #0x00	; 0
	.db #0x00	; 0
	.db #0x00	; 0
	.db #0x00	; 0
	.db #0x00	; 0
	.db #0x00	; 0
	.db #0x00	; 0
	.db #0x00	; 0
	.db #0x00	; 0
	.db #0x00	; 0
	.db #0x00	; 0
	.db #0x00	; 0
	.db #0x00	; 0
	.db #0x00	; 0
	.db #0x00	; 0
	.db #0x00	; 0
	.db #0x00	; 0
	.db #0x00	; 0
	.db #0x00	; 0
	.db #0x00	; 0
	.db #0x00	; 0
	.db #0x00	; 0
	.db #0x00	; 0
	.db #0x00	; 0
	.db #0x00	; 0
	.db #0x00	; 0
	.db #0x00	; 0
	.db #0x00	; 0
	.db #0x00	; 0
	.db #0x00	; 0
	.db #0x00	; 0
	.db #0x00	; 0
	.db #0x00	; 0
	.db #0x00	; 0
	.db #0x00	; 0
	.db #0x00	; 0
	.db #0x00	; 0
	.db #0x00	; 0
	.db #0x00	; 0
	.db #0x00	; 0
	.db #0x00	; 0
	.db #0x00	; 0
	.db #0x00	; 0
	.db #0x00	; 0
	.db #0x00	; 0
	.db #0x00	; 0
	.db #0x00	; 0
	.db #0x00	; 0
	.db #0x00	; 0
	.db #0x00	; 0
	.db #0x00	; 0
	.db #0x00	; 0
	.db #0x00	; 0
	.db #0x00	; 0
	.db #0x00	; 0
	.db #0x00	; 0
	.db #0x00	; 0
	.db #0x00	; 0
	.db #0x00	; 0
	.db #0x00	; 0
	.db #0x00	; 0
	.db #0x00	; 0
	.db #0x00	; 0
	.db #0x00	; 0
	.db #0x00	; 0
	.db #0x00	; 0
	.db #0x00	; 0
	.db #0x00	; 0
	.db #0x00	; 0
	.db #0x00	; 0
	.db #0x00	; 0
	.db #0x00	; 0
	.db #0x38	; 56	'8'
	.db #0x44	; 68	'D'
	.db #0x9a	; 154
	.db #0xa2	; 162
	.db #0x9a	; 154
	.db #0x44	; 68	'D'
	.db #0x38	; 56	'8'
	.db #0x00	; 0
	.db #0x00	; 0
	.db #0x00	; 0
	.db #0x00	; 0
	.db #0x00	; 0
	.db #0x00	; 0
	.db #0x00	; 0
	.db #0x00	; 0
	.db #0x00	; 0
	.db #0x18	; 24
	.db #0x3c	; 60
	.db #0x3c	; 60
	.db #0x18	; 24
	.db #0x18	; 24
	.db #0x00	; 0
	.db #0x18	; 24
	.db #0x00	; 0
	.db #0x36	; 54	'6'
	.db #0x36	; 54	'6'
	.db #0x36	; 54	'6'
	.db #0x00	; 0
	.db #0x00	; 0
	.db #0x00	; 0
	.db #0x00	; 0
	.db #0x00	; 0
	.db #0x36	; 54	'6'
	.db #0x36	; 54	'6'
	.db #0x7f	; 127
	.db #0x36	; 54	'6'
	.db #0x7f	; 127
	.db #0x36	; 54	'6'
	.db #0x36	; 54	'6'
	.db #0x00	; 0
	.db #0x18	; 24
	.db #0x3e	; 62
	.db #0x60	; 96
	.db #0x3c	; 60
	.db #0x06	; 6
	.db #0x7c	; 124
	.db #0x18	; 24
	.db #0x00	; 0
	.db #0x60	; 96
	.db #0x66	; 102	'f'
	.db #0x0c	; 12
	.db #0x18	; 24
	.db #0x30	; 48	'0'
	.db #0x66	; 102	'f'
	.db #0x06	; 6
	.db #0x00	; 0
	.db #0x1c	; 28
	.db #0x36	; 54	'6'
	.db #0x1c	; 28
	.db #0x3b	; 59
	.db #0x6e	; 110	'n'
	.db #0x66	; 102	'f'
	.db #0x3b	; 59
	.db #0x00	; 0
	.db #0x1c	; 28
	.db #0x18	; 24
	.db #0x30	; 48	'0'
	.db #0x00	; 0
	.db #0x00	; 0
	.db #0x00	; 0
	.db #0x00	; 0
	.db #0x00	; 0
	.db #0x0c	; 12
	.db #0x18	; 24
	.db #0x30	; 48	'0'
	.db #0x30	; 48	'0'
	.db #0x30	; 48	'0'
	.db #0x18	; 24
	.db #0x0c	; 12
	.db #0x00	; 0
	.db #0x30	; 48	'0'
	.db #0x18	; 24
	.db #0x0c	; 12
	.db #0x0c	; 12
	.db #0x0c	; 12
	.db #0x18	; 24
	.db #0x30	; 48	'0'
	.db #0x00	; 0
	.db #0x00	; 0
	.db #0x66	; 102	'f'
	.db #0x3c	; 60
	.db #0x18	; 24
	.db #0x3c	; 60
	.db #0x66	; 102	'f'
	.db #0x00	; 0
	.db #0x00	; 0
	.db #0x00	; 0
	.db #0x18	; 24
	.db #0x18	; 24
	.db #0x7e	; 126
	.db #0x18	; 24
	.db #0x18	; 24
	.db #0x00	; 0
	.db #0x00	; 0
	.db #0x00	; 0
	.db #0x00	; 0
	.db #0x00	; 0
	.db #0x00	; 0
	.db #0x00	; 0
	.db #0x18	; 24
	.db #0x18	; 24
	.db #0x30	; 48	'0'
	.db #0x00	; 0
	.db #0x00	; 0
	.db #0x00	; 0
	.db #0x7e	; 126
	.db #0x00	; 0
	.db #0x00	; 0
	.db #0x00	; 0
	.db #0x00	; 0
	.db #0x00	; 0
	.db #0x00	; 0
	.db #0x00	; 0
	.db #0x00	; 0
	.db #0x00	; 0
	.db #0x18	; 24
	.db #0x18	; 24
	.db #0x00	; 0
	.db #0x00	; 0
	.db #0x06	; 6
	.db #0x0c	; 12
	.db #0x18	; 24
	.db #0x30	; 48	'0'
	.db #0x60	; 96
	.db #0x00	; 0
	.db #0x00	; 0
	.db #0x3c	; 60
	.db #0x66	; 102	'f'
	.db #0x6e	; 110	'n'
	.db #0x7e	; 126
	.db #0x76	; 118	'v'
	.db #0x66	; 102	'f'
	.db #0x3c	; 60
	.db #0x00	; 0
	.db #0x18	; 24
	.db #0x38	; 56	'8'
	.db #0x18	; 24
	.db #0x18	; 24
	.db #0x18	; 24
	.db #0x18	; 24
	.db #0x7e	; 126
	.db #0x00	; 0
	.db #0x3c	; 60
	.db #0x66	; 102	'f'
	.db #0x06	; 6
	.db #0x1c	; 28
	.db #0x30	; 48	'0'
	.db #0x66	; 102	'f'
	.db #0x7e	; 126
	.db #0x00	; 0
	.db #0x3c	; 60
	.db #0x66	; 102	'f'
	.db #0x06	; 6
	.db #0x1c	; 28
	.db #0x06	; 6
	.db #0x66	; 102	'f'
	.db #0x3c	; 60
	.db #0x00	; 0
	.db #0x0e	; 14
	.db #0x1e	; 30
	.db #0x36	; 54	'6'
	.db #0x66	; 102	'f'
	.db #0x7f	; 127
	.db #0x06	; 6
	.db #0x0f	; 15
	.db #0x00	; 0
	.db #0x7e	; 126
	.db #0x60	; 96
	.db #0x60	; 96
	.db #0x7c	; 124
	.db #0x06	; 6
	.db #0x66	; 102	'f'
	.db #0x3c	; 60
	.db #0x00	; 0
	.db #0x1c	; 28
	.db #0x30	; 48	'0'
	.db #0x60	; 96
	.db #0x7c	; 124
	.db #0x66	; 102	'f'
	.db #0x66	; 102	'f'
	.db #0x3c	; 60
	.db #0x00	; 0
	.db #0x7e	; 126
	.db #0x66	; 102	'f'
	.db #0x06	; 6
	.db #0x0c	; 12
	.db #0x18	; 24
	.db #0x18	; 24
	.db #0x18	; 24
	.db #0x00	; 0
	.db #0x3c	; 60
	.db #0x66	; 102	'f'
	.db #0x66	; 102	'f'
	.db #0x3c	; 60
	.db #0x66	; 102	'f'
	.db #0x66	; 102	'f'
	.db #0x3c	; 60
	.db #0x00	; 0
	.db #0x3c	; 60
	.db #0x66	; 102	'f'
	.db #0x66	; 102	'f'
	.db #0x3e	; 62
	.db #0x06	; 6
	.db #0x0c	; 12
	.db #0x38	; 56	'8'
	.db #0x00	; 0
	.db #0x00	; 0
	.db #0x00	; 0
	.db #0x18	; 24
	.db #0x18	; 24
	.db #0x00	; 0
	.db #0x18	; 24
	.db #0x18	; 24
	.db #0x00	; 0
	.db #0x00	; 0
	.db #0x00	; 0
	.db #0x18	; 24
	.db #0x18	; 24
	.db #0x00	; 0
	.db #0x18	; 24
	.db #0x18	; 24
	.db #0x30	; 48	'0'
	.db #0x0c	; 12
	.db #0x18	; 24
	.db #0x30	; 48	'0'
	.db #0x60	; 96
	.db #0x30	; 48	'0'
	.db #0x18	; 24
	.db #0x0c	; 12
	.db #0x00	; 0
	.db #0x00	; 0
	.db #0x00	; 0
	.db #0x7e	; 126
	.db #0x00	; 0
	.db #0x7e	; 126
	.db #0x00	; 0
	.db #0x00	; 0
	.db #0x00	; 0
	.db #0x30	; 48	'0'
	.db #0x18	; 24
	.db #0x0c	; 12
	.db #0x06	; 6
	.db #0x0c	; 12
	.db #0x18	; 24
	.db #0x30	; 48	'0'
	.db #0x00	; 0
	.db #0x3c	; 60
	.db #0x66	; 102	'f'
	.db #0x06	; 6
	.db #0x0c	; 12
	.db #0x18	; 24
	.db #0x00	; 0
	.db #0x18	; 24
	.db #0x00	; 0
	.db #0x3c	; 60
	.db #0x66	; 102	'f'
	.db #0x6e	; 110	'n'
	.db #0x6a	; 106	'j'
	.db #0x6e	; 110	'n'
	.db #0x60	; 96
	.db #0x3c	; 60
	.db #0x00	; 0
	.db #0x3c	; 60
	.db #0x66	; 102	'f'
	.db #0x66	; 102	'f'
	.db #0x7e	; 126
	.db #0x66	; 102	'f'
	.db #0x66	; 102	'f'
	.db #0x66	; 102	'f'
	.db #0x00	; 0
	.db #0x7c	; 124
	.db #0x66	; 102	'f'
	.db #0x66	; 102	'f'
	.db #0x7c	; 124
	.db #0x66	; 102	'f'
	.db #0x66	; 102	'f'
	.db #0x7c	; 124
	.db #0x00	; 0
	.db #0x3c	; 60
	.db #0x66	; 102	'f'
	.db #0x60	; 96
	.db #0x60	; 96
	.db #0x60	; 96
	.db #0x66	; 102	'f'
	.db #0x3c	; 60
	.db #0x00	; 0
	.db #0x78	; 120	'x'
	.db #0x6c	; 108	'l'
	.db #0x66	; 102	'f'
	.db #0x66	; 102	'f'
	.db #0x66	; 102	'f'
	.db #0x6c	; 108	'l'
	.db #0x78	; 120	'x'
	.db #0x00	; 0
	.db #0x7e	; 126
	.db #0x60	; 96
	.db #0x60	; 96
	.db #0x7c	; 124
	.db #0x60	; 96
	.db #0x60	; 96
	.db #0x7e	; 126
	.db #0x00	; 0
	.db #0x7e	; 126
	.db #0x60	; 96
	.db #0x60	; 96
	.db #0x7c	; 124
	.db #0x60	; 96
	.db #0x60	; 96
	.db #0x60	; 96
	.db #0x00	; 0
	.db #0x3c	; 60
	.db #0x66	; 102	'f'
	.db #0x60	; 96
	.db #0x6e	; 110	'n'
	.db #0x66	; 102	'f'
	.db #0x66	; 102	'f'
	.db #0x3c	; 60
	.db #0x00	; 0
	.db #0x66	; 102	'f'
	.db #0x66	; 102	'f'
	.db #0x66	; 102	'f'
	.db #0x7e	; 126
	.db #0x66	; 102	'f'
	.db #0x66	; 102	'f'
	.db #0x66	; 102	'f'
	.db #0x00	; 0
	.db #0x3c	; 60
	.db #0x18	; 24
	.db #0x18	; 24
	.db #0x18	; 24
	.db #0x18	; 24
	.db #0x18	; 24
	.db #0x3c	; 60
	.db #0x00	; 0
	.db #0x0e	; 14
	.db #0x06	; 6
	.db #0x06	; 6
	.db #0x06	; 6
	.db #0x66	; 102	'f'
	.db #0x66	; 102	'f'
	.db #0x3c	; 60
	.db #0x00	; 0
	.db #0x66	; 102	'f'
	.db #0x66	; 102	'f'
	.db #0x6c	; 108	'l'
	.db #0x78	; 120	'x'
	.db #0x6c	; 108	'l'
	.db #0x66	; 102	'f'
	.db #0x66	; 102	'f'
	.db #0x00	; 0
	.db #0x60	; 96
	.db #0x60	; 96
	.db #0x60	; 96
	.db #0x60	; 96
	.db #0x60	; 96
	.db #0x60	; 96
	.db #0x7e	; 126
	.db #0x00	; 0
	.db #0x63	; 99	'c'
	.db #0x77	; 119	'w'
	.db #0x7f	; 127
	.db #0x7f	; 127
	.db #0x6b	; 107	'k'
	.db #0x63	; 99	'c'
	.db #0x63	; 99	'c'
	.db #0x00	; 0
	.db #0x66	; 102	'f'
	.db #0x76	; 118	'v'
	.db #0x7e	; 126
	.db #0x7e	; 126
	.db #0x6e	; 110	'n'
	.db #0x66	; 102	'f'
	.db #0x66	; 102	'f'
	.db #0x00	; 0
	.db #0x3c	; 60
	.db #0x66	; 102	'f'
	.db #0x66	; 102	'f'
	.db #0x66	; 102	'f'
	.db #0x66	; 102	'f'
	.db #0x66	; 102	'f'
	.db #0x3c	; 60
	.db #0x00	; 0
	.db #0x7c	; 124
	.db #0x66	; 102	'f'
	.db #0x66	; 102	'f'
	.db #0x7c	; 124
	.db #0x60	; 96
	.db #0x60	; 96
	.db #0x60	; 96
	.db #0x00	; 0
	.db #0x3c	; 60
	.db #0x66	; 102	'f'
	.db #0x66	; 102	'f'
	.db #0x66	; 102	'f'
	.db #0x6e	; 110	'n'
	.db #0x3c	; 60
	.db #0x0e	; 14
	.db #0x00	; 0
	.db #0x7c	; 124
	.db #0x66	; 102	'f'
	.db #0x66	; 102	'f'
	.db #0x7c	; 124
	.db #0x6c	; 108	'l'
	.db #0x66	; 102	'f'
	.db #0x66	; 102	'f'
	.db #0x00	; 0
	.db #0x3c	; 60
	.db #0x66	; 102	'f'
	.db #0x60	; 96
	.db #0x3c	; 60
	.db #0x06	; 6
	.db #0x66	; 102	'f'
	.db #0x3c	; 60
	.db #0x00	; 0
	.db #0x7e	; 126
	.db #0x18	; 24
	.db #0x18	; 24
	.db #0x18	; 24
	.db #0x18	; 24
	.db #0x18	; 24
	.db #0x18	; 24
	.db #0x00	; 0
	.db #0x66	; 102	'f'
	.db #0x66	; 102	'f'
	.db #0x66	; 102	'f'
	.db #0x66	; 102	'f'
	.db #0x66	; 102	'f'
	.db #0x66	; 102	'f'
	.db #0x3c	; 60
	.db #0x00	; 0
	.db #0x66	; 102	'f'
	.db #0x66	; 102	'f'
	.db #0x66	; 102	'f'
	.db #0x66	; 102	'f'
	.db #0x66	; 102	'f'
	.db #0x3c	; 60
	.db #0x18	; 24
	.db #0x00	; 0
	.db #0x63	; 99	'c'
	.db #0x63	; 99	'c'
	.db #0x63	; 99	'c'
	.db #0x6b	; 107	'k'
	.db #0x7f	; 127
	.db #0x77	; 119	'w'
	.db #0x63	; 99	'c'
	.db #0x00	; 0
	.db #0x66	; 102	'f'
	.db #0x66	; 102	'f'
	.db #0x3c	; 60
	.db #0x18	; 24
	.db #0x3c	; 60
	.db #0x66	; 102	'f'
	.db #0x66	; 102	'f'
	.db #0x00	; 0
	.db #0x66	; 102	'f'
	.db #0x66	; 102	'f'
	.db #0x66	; 102	'f'
	.db #0x3c	; 60
	.db #0x18	; 24
	.db #0x18	; 24
	.db #0x18	; 24
	.db #0x00	; 0
	.db #0x7e	; 126
	.db #0x06	; 6
	.db #0x0c	; 12
	.db #0x18	; 24
	.db #0x30	; 48	'0'
	.db #0x60	; 96
	.db #0x7e	; 126
	.db #0x00	; 0
	.db #0x3e	; 62
	.db #0x30	; 48	'0'
	.db #0x30	; 48	'0'
	.db #0x30	; 48	'0'
	.db #0x30	; 48	'0'
	.db #0x30	; 48	'0'
	.db #0x3e	; 62
	.db #0x00	; 0
	.db #0x00	; 0
	.db #0x60	; 96
	.db #0x30	; 48	'0'
	.db #0x18	; 24
	.db #0x0c	; 12
	.db #0x06	; 6
	.db #0x00	; 0
	.db #0x00	; 0
	.db #0x3e	; 62
	.db #0x06	; 6
	.db #0x06	; 6
	.db #0x06	; 6
	.db #0x06	; 6
	.db #0x06	; 6
	.db #0x3e	; 62
	.db #0x00	; 0
	.db #0x08	; 8
	.db #0x1c	; 28
	.db #0x36	; 54	'6'
	.db #0x63	; 99	'c'
	.db #0x00	; 0
	.db #0x00	; 0
	.db #0x00	; 0
	.db #0x00	; 0
	.db #0x00	; 0
	.db #0x55	; 85	'U'
	.db #0x18	; 24
	.db #0x7e	; 126
	.db #0x10	; 16
	.db #0x38	; 56	'8'
	.db #0xef	; 239
	.db #0xfc	; 252
	.db #0x00	; 0
	.db #0x6c	; 108	'l'
	.db #0xfe	; 254
	.db #0xfe	; 254
	.db #0x7c	; 124
	.db #0x38	; 56	'8'
	.db #0x10	; 16
	.db #0x00	; 0
	.db #0x00	; 0
	.db #0x00	; 0
	.db #0x00	; 0
	.db #0x00	; 0
	.db #0x00	; 0
	.db #0x00	; 0
	.db #0x00	; 0
	.db #0x00	; 0
	.db #0x00	; 0
	.db #0x00	; 0
	.db #0x00	; 0
	.db #0x00	; 0
	.db #0x00	; 0
	.db #0x00	; 0
	.db #0x00	; 0
	.db #0x00	; 0
	.db #0x00	; 0
	.db #0x00	; 0
	.db #0x00	; 0
	.db #0x00	; 0
	.db #0x00	; 0
	.db #0x00	; 0
	.db #0x00	; 0
	.db #0x00	; 0
	.db #0x00	; 0
	.db #0x00	; 0
	.db #0x00	; 0
	.db #0x00	; 0
	.db #0x00	; 0
	.db #0x00	; 0
	.db #0x00	; 0
	.db #0x00	; 0
	.db #0x00	; 0
	.db #0x00	; 0
	.db #0x00	; 0
	.db #0x00	; 0
	.db #0x00	; 0
	.db #0x00	; 0
	.db #0x00	; 0
	.db #0x00	; 0
	.db #0x00	; 0
	.db #0x00	; 0
	.db #0x00	; 0
	.db #0x00	; 0
	.db #0x00	; 0
	.db #0x00	; 0
	.db #0x00	; 0
	.db #0x00	; 0
	.db #0x00	; 0
	.db #0x00	; 0
	.db #0x00	; 0
	.db #0x00	; 0
	.db #0x00	; 0
	.db #0x00	; 0
	.db #0x00	; 0
	.db #0x00	; 0
	.db #0x00	; 0
	.db #0x00	; 0
	.db #0x00	; 0
	.db #0x00	; 0
	.db #0x00	; 0
	.db #0x00	; 0
	.db #0x00	; 0
	.db #0x00	; 0
	.db #0x00	; 0
	.db #0x00	; 0
	.db #0x00	; 0
	.db #0x00	; 0
	.db #0x00	; 0
	.db #0x00	; 0
	.db #0x00	; 0
	.db #0x00	; 0
	.db #0x00	; 0
	.db #0x00	; 0
	.db #0x00	; 0
	.db #0x00	; 0
	.db #0x00	; 0
	.db #0x00	; 0
	.db #0x00	; 0
	.db #0x00	; 0
	.db #0x00	; 0
	.db #0x00	; 0
	.db #0x00	; 0
	.db #0x00	; 0
	.db #0x00	; 0
	.db #0x00	; 0
	.db #0x00	; 0
	.db #0x00	; 0
	.db #0x00	; 0
	.db #0x00	; 0
	.db #0x00	; 0
	.db #0x00	; 0
	.db #0x00	; 0
	.db #0x00	; 0
	.db #0x00	; 0
	.db #0x00	; 0
	.db #0x00	; 0
	.db #0x00	; 0
	.db #0x00	; 0
	.db #0x00	; 0
	.db #0x00	; 0
	.db #0x00	; 0
	.db #0x00	; 0
	.db #0x00	; 0
	.db #0x00	; 0
	.db #0x00	; 0
	.db #0x00	; 0
	.db #0x00	; 0
	.db #0x00	; 0
	.db #0x00	; 0
	.db #0x00	; 0
	.db #0x00	; 0
	.db #0x00	; 0
	.db #0x00	; 0
	.db #0x00	; 0
	.db #0x00	; 0
	.db #0x00	; 0
	.db #0x00	; 0
	.db #0x00	; 0
	.db #0x00	; 0
	.db #0x00	; 0
	.db #0x00	; 0
	.db #0x00	; 0
	.db #0x00	; 0
	.db #0x00	; 0
	.db #0x00	; 0
	.db #0x00	; 0
	.db #0x00	; 0
	.db #0x00	; 0
	.db #0x00	; 0
	.db #0x00	; 0
	.db #0x00	; 0
	.db #0x00	; 0
	.db #0x00	; 0
	.db #0x00	; 0
	.db #0x00	; 0
	.db #0x00	; 0
	.db #0x00	; 0
	.db #0x00	; 0
	.db #0x00	; 0
	.db #0x00	; 0
	.db #0x00	; 0
	.db #0x00	; 0
	.db #0x00	; 0
	.db #0x00	; 0
	.db #0x00	; 0
	.db #0x00	; 0
	.db #0x00	; 0
	.db #0x00	; 0
	.db #0x00	; 0
	.db #0x00	; 0
	.db #0x00	; 0
	.db #0x00	; 0
	.db #0x00	; 0
	.db #0x00	; 0
	.db #0x00	; 0
	.db #0x00	; 0
	.db #0x00	; 0
	.db #0x00	; 0
	.db #0x00	; 0
	.db #0x00	; 0
	.db #0x00	; 0
	.db #0x00	; 0
	.db #0x00	; 0
	.db #0x00	; 0
	.db #0x00	; 0
	.db #0x00	; 0
	.db #0x00	; 0
	.db #0x00	; 0
	.db #0x00	; 0
	.db #0x00	; 0
	.db #0x00	; 0
	.db #0x00	; 0
	.db #0x00	; 0
	.db #0x00	; 0
	.db #0x00	; 0
	.db #0x00	; 0
	.db #0x00	; 0
	.db #0x00	; 0
	.db #0x00	; 0
	.db #0x00	; 0
	.db #0x00	; 0
	.db #0x00	; 0
	.db #0x00	; 0
	.db #0x00	; 0
	.db #0x00	; 0
	.db #0x00	; 0
	.db #0x00	; 0
	.db #0x00	; 0
	.db #0x00	; 0
	.db #0x00	; 0
	.db #0x00	; 0
	.db #0x00	; 0
	.db #0x00	; 0
	.db #0x00	; 0
	.db #0x00	; 0
	.db #0x00	; 0
	.db #0x00	; 0
	.db #0x00	; 0
	.db #0x00	; 0
	.db #0x00	; 0
	.db #0x00	; 0
	.db #0x00	; 0
	.db #0x00	; 0
	.db #0x00	; 0
	.db #0x00	; 0
	.db #0x00	; 0
	.db #0x00	; 0
	.db #0x00	; 0
	.db #0x00	; 0
	.db #0x00	; 0
	.db #0x00	; 0
	.db #0x00	; 0
	.db #0x00	; 0
	.db #0x00	; 0
	.db #0x00	; 0
	.db #0x00	; 0
	.db #0x00	; 0
	.db #0x00	; 0
	.db #0x00	; 0
	.db #0x00	; 0
	.db #0x00	; 0
	.db #0x00	; 0
	.db #0x00	; 0
	.db #0x00	; 0
	.db #0x00	; 0
	.db #0x00	; 0
	.db #0x00	; 0
	.db #0x00	; 0
	.db #0x00	; 0
	.db #0x00	; 0
	.db #0x00	; 0
	.db #0x00	; 0
	.db #0x00	; 0
	.db #0x00	; 0
	.db #0x00	; 0
	.db #0x00	; 0
	.db #0x00	; 0
	.db #0x00	; 0
	.db #0x00	; 0
	.db #0xfc	; 252
	.db #0xfc	; 252
	.db #0xfc	; 252
	.db #0xfc	; 252
	.db #0x38	; 56	'8'
	.db #0x00	; 0
	.db #0x7e	; 126
	.db #0x00	; 0
	.db #0x00	; 0
	.db #0x00	; 0
	.db #0x00	; 0
	.db #0x00	; 0
	.db #0x00	; 0
	.db #0x00	; 0
	.db #0x00	; 0
	.db #0x00	; 0
	.db #0x00	; 0
	.db #0x00	; 0
	.db #0x00	; 0
	.db #0x00	; 0
	.db #0x00	; 0
	.db #0x00	; 0
	.db #0x00	; 0
	.db #0x00	; 0
	.db #0x00	; 0
	.db #0x00	; 0
	.db #0x00	; 0
	.db #0x00	; 0
	.db #0x00	; 0
	.db #0x00	; 0
	.db #0x00	; 0
	.db #0x00	; 0
	.db #0x00	; 0
	.db #0x00	; 0
	.db #0x00	; 0
	.db #0x00	; 0
	.db #0x00	; 0
	.db #0x00	; 0
	.db #0x00	; 0
	.db #0x00	; 0
	.db #0x00	; 0
	.db #0x00	; 0
	.db #0x00	; 0
	.db #0x00	; 0
	.db #0x00	; 0
	.db #0x00	; 0
	.db #0x00	; 0
	.db #0x00	; 0
	.db #0x00	; 0
	.db #0x00	; 0
	.db #0x00	; 0
	.db #0x00	; 0
	.db #0x00	; 0
	.db #0x00	; 0
	.db #0x00	; 0
	.db #0x00	; 0
	.db #0x00	; 0
	.db #0x00	; 0
	.db #0x00	; 0
	.db #0x00	; 0
	.db #0x00	; 0
	.db #0x00	; 0
	.db #0x00	; 0
	.db #0x00	; 0
	.db #0x00	; 0
	.db #0x00	; 0
	.db #0x00	; 0
	.db #0x00	; 0
	.db #0x00	; 0
	.db #0x00	; 0
	.db #0x00	; 0
	.db #0x00	; 0
	.db #0x00	; 0
	.db #0x00	; 0
	.db #0x00	; 0
	.db #0x00	; 0
	.db #0x00	; 0
	.db #0x00	; 0
	.db #0x00	; 0
	.db #0x00	; 0
	.db #0x00	; 0
	.db #0x00	; 0
	.db #0x00	; 0
	.db #0x00	; 0
	.db #0x00	; 0
	.db #0x00	; 0
	.db #0x00	; 0
	.db #0x00	; 0
	.db #0x00	; 0
	.db #0x00	; 0
	.db #0x00	; 0
	.db #0x00	; 0
	.db #0x00	; 0
	.db #0x00	; 0
	.db #0x00	; 0
	.db #0x00	; 0
	.db #0x00	; 0
	.db #0x00	; 0
	.db #0x00	; 0
	.db #0x00	; 0
	.db #0x00	; 0
	.db #0x00	; 0
	.db #0x00	; 0
	.db #0x00	; 0
	.db #0x00	; 0
	.db #0x00	; 0
	.db #0x00	; 0
	.db #0x00	; 0
	.db #0x00	; 0
	.db #0x00	; 0
	.db #0x00	; 0
	.db #0x00	; 0
	.db #0x00	; 0
	.db #0x00	; 0
	.db #0x00	; 0
	.db #0x00	; 0
	.db #0x00	; 0
	.db #0x00	; 0
	.db #0x00	; 0
	.db #0x00	; 0
	.db #0x00	; 0
	.db #0x00	; 0
	.db #0x00	; 0
	.db #0x00	; 0
	.db #0x00	; 0
	.db #0x00	; 0
	.db #0x00	; 0
	.db #0x00	; 0
	.db #0x00	; 0
	.db #0x00	; 0
	.db #0x00	; 0
	.db #0x00	; 0
	.db #0x00	; 0
	.db #0x00	; 0
	.db #0x00	; 0
	.db #0x00	; 0
	.db #0x00	; 0
	.db #0x00	; 0
	.db #0x00	; 0
	.db #0x00	; 0
	.db #0x00	; 0
	.db #0x00	; 0
	.db #0x00	; 0
	.db #0x00	; 0
	.db #0x00	; 0
	.db #0x00	; 0
	.db #0x00	; 0
	.db #0x00	; 0
	.db #0x00	; 0
	.db #0x00	; 0
	.db #0x00	; 0
	.db #0x00	; 0
	.db #0x00	; 0
	.db #0x00	; 0
	.db #0x00	; 0
	.db #0x00	; 0
	.db #0x00	; 0
	.db #0x00	; 0
	.db #0x00	; 0
	.db #0x00	; 0
	.db #0x00	; 0
	.db #0x00	; 0
	.db #0x00	; 0
	.db #0x00	; 0
	.db #0x00	; 0
	.db #0x00	; 0
	.db #0x00	; 0
	.db #0x00	; 0
	.db #0x00	; 0
	.db #0x00	; 0
	.db #0x00	; 0
	.db #0x00	; 0
	.db #0x00	; 0
	.db #0x00	; 0
	.db #0x00	; 0
	.db #0x00	; 0
	.db #0x00	; 0
	.db #0x00	; 0
	.db #0x00	; 0
	.db #0x00	; 0
	.db #0x00	; 0
	.db #0x00	; 0
	.db #0x00	; 0
	.db #0x00	; 0
	.db #0x00	; 0
	.db #0x00	; 0
	.db #0x00	; 0
	.db #0x00	; 0
	.db #0x00	; 0
	.db #0x00	; 0
	.db #0x00	; 0
	.db #0x00	; 0
	.db #0x00	; 0
	.db #0x00	; 0
	.db #0x00	; 0
	.db #0x00	; 0
	.db #0x00	; 0
	.db #0x00	; 0
	.db #0x00	; 0
	.db #0x00	; 0
	.db #0x00	; 0
	.db #0x00	; 0
	.db #0x00	; 0
	.db #0x00	; 0
	.db #0x00	; 0
	.db #0x00	; 0
	.db #0x00	; 0
	.db #0x00	; 0
	.db #0x00	; 0
	.db #0x00	; 0
	.db #0x00	; 0
	.db #0x00	; 0
	.db #0x00	; 0
	.db #0x00	; 0
	.db #0x00	; 0
	.db #0x00	; 0
	.db #0x00	; 0
	.db #0x00	; 0
	.db #0x00	; 0
	.db #0x00	; 0
	.db #0x00	; 0
	.db #0x00	; 0
	.db #0x00	; 0
	.db #0x00	; 0
	.db #0x00	; 0
	.db #0x00	; 0
	.db #0x00	; 0
	.db #0x00	; 0
	.db #0x00	; 0
	.db #0x00	; 0
	.db #0x00	; 0
	.db #0x00	; 0
	.db #0x00	; 0
	.db #0x00	; 0
	.db #0x00	; 0
	.db #0x00	; 0
	.db #0x00	; 0
	.db #0x00	; 0
	.db #0x00	; 0
	.db #0x00	; 0
	.db #0x00	; 0
	.db #0x00	; 0
	.db #0x00	; 0
	.db #0x00	; 0
	.db #0x00	; 0
	.db #0x00	; 0
	.db #0x00	; 0
	.db #0x00	; 0
	.db #0x00	; 0
	.db #0x00	; 0
	.db #0x00	; 0
	.db #0x00	; 0
	.db #0x00	; 0
	.db #0x00	; 0
	.db #0x00	; 0
	.db #0x00	; 0
G$tiles_colors$0_0$0 == .
_tiles_colors:
	.db #0x11	; 17
	.db #0x11	; 17
	.db #0x11	; 17
	.db #0x11	; 17
	.db #0x11	; 17
	.db #0x11	; 17
	.db #0x11	; 17
	.db #0x11	; 17
	.db #0x11	; 17
	.db #0x11	; 17
	.db #0x11	; 17
	.db #0x11	; 17
	.db #0x11	; 17
	.db #0x11	; 17
	.db #0x11	; 17
	.db #0x11	; 17
	.db #0x11	; 17
	.db #0x11	; 17
	.db #0x11	; 17
	.db #0x11	; 17
	.db #0x11	; 17
	.db #0x11	; 17
	.db #0x11	; 17
	.db #0x11	; 17
	.db #0x11	; 17
	.db #0x11	; 17
	.db #0x11	; 17
	.db #0x11	; 17
	.db #0x11	; 17
	.db #0x11	; 17
	.db #0x11	; 17
	.db #0x11	; 17
	.db #0x11	; 17
	.db #0x11	; 17
	.db #0x11	; 17
	.db #0x11	; 17
	.db #0x11	; 17
	.db #0x11	; 17
	.db #0x11	; 17
	.db #0x11	; 17
	.db #0xf4	; 244
	.db #0xf4	; 244
	.db #0x1f	; 31
	.db #0x1f	; 31
	.db #0xf1	; 241
	.db #0xf1	; 241
	.db #0x11	; 17
	.db #0x11	; 17
	.db #0xf4	; 244
	.db #0xf4	; 244
	.db #0xf1	; 241
	.db #0xf1	; 241
	.db #0xf1	; 241
	.db #0xf1	; 241
	.db #0x11	; 17
	.db #0x11	; 17
	.db #0x54	; 84	'T'
	.db #0x54	; 84	'T'
	.db #0x54	; 84	'T'
	.db #0x54	; 84	'T'
	.db #0x54	; 84	'T'
	.db #0x54	; 84	'T'
	.db #0x14	; 20
	.db #0x11	; 17
	.db #0x14	; 20
	.db #0x14	; 20
	.db #0x14	; 20
	.db #0x14	; 20
	.db #0x14	; 20
	.db #0x14	; 20
	.db #0x14	; 20
	.db #0x11	; 17
	.db #0xf7	; 247
	.db #0xf7	; 247
	.db #0xf7	; 247
	.db #0xf7	; 247
	.db #0xf7	; 247
	.db #0xf7	; 247
	.db #0x11	; 17
	.db #0x11	; 17
	.db #0x17	; 23
	.db #0x17	; 23
	.db #0x17	; 23
	.db #0x17	; 23
	.db #0x17	; 23
	.db #0x17	; 23
	.db #0x11	; 17
	.db #0x11	; 17
	.db #0x11	; 17
	.db #0x11	; 17
	.db #0x11	; 17
	.db #0x11	; 17
	.db #0x11	; 17
	.db #0x11	; 17
	.db #0x11	; 17
	.db #0x11	; 17
	.db #0x11	; 17
	.db #0x14	; 20
	.db #0x11	; 17
	.db #0x11	; 17
	.db #0x11	; 17
	.db #0x11	; 17
	.db #0x11	; 17
	.db #0x11	; 17
	.db #0x11	; 17
	.db #0x14	; 20
	.db #0x11	; 17
	.db #0x14	; 20
	.db #0x11	; 17
	.db #0x14	; 20
	.db #0x11	; 17
	.db #0x11	; 17
	.db #0x1a	; 26
	.db #0x11	; 17
	.db #0x1a	; 26
	.db #0x11	; 17
	.db #0x1a	; 26
	.db #0x11	; 17
	.db #0x1a	; 26
	.db #0x11	; 17
	.db #0x1a	; 26
	.db #0x11	; 17
	.db #0x1a	; 26
	.db #0x11	; 17
	.db #0x1a	; 26
	.db #0x11	; 17
	.db #0x1a	; 26
	.db #0x11	; 17
	.db #0x11	; 17
	.db #0x11	; 17
	.db #0x11	; 17
	.db #0x11	; 17
	.db #0x11	; 17
	.db #0x11	; 17
	.db #0x11	; 17
	.db #0x11	; 17
	.db #0x11	; 17
	.db #0x11	; 17
	.db #0x11	; 17
	.db #0x11	; 17
	.db #0x11	; 17
	.db #0x11	; 17
	.db #0x11	; 17
	.db #0x11	; 17
	.db #0x11	; 17
	.db #0x11	; 17
	.db #0x11	; 17
	.db #0x11	; 17
	.db #0x11	; 17
	.db #0x11	; 17
	.db #0x11	; 17
	.db #0x11	; 17
	.db #0x11	; 17
	.db #0x11	; 17
	.db #0x11	; 17
	.db #0x11	; 17
	.db #0x11	; 17
	.db #0x11	; 17
	.db #0x11	; 17
	.db #0x11	; 17
	.db #0x11	; 17
	.db #0x11	; 17
	.db #0x11	; 17
	.db #0x11	; 17
	.db #0x11	; 17
	.db #0x11	; 17
	.db #0x11	; 17
	.db #0x11	; 17
	.db #0x11	; 17
	.db #0x11	; 17
	.db #0x11	; 17
	.db #0x11	; 17
	.db #0x11	; 17
	.db #0x11	; 17
	.db #0x11	; 17
	.db #0x11	; 17
	.db #0x11	; 17
	.db #0x11	; 17
	.db #0x11	; 17
	.db #0x11	; 17
	.db #0x11	; 17
	.db #0x11	; 17
	.db #0x11	; 17
	.db #0x11	; 17
	.db #0x11	; 17
	.db #0x11	; 17
	.db #0x11	; 17
	.db #0x11	; 17
	.db #0x11	; 17
	.db #0x11	; 17
	.db #0x11	; 17
	.db #0x11	; 17
	.db #0x11	; 17
	.db #0x11	; 17
	.db #0x11	; 17
	.db #0x11	; 17
	.db #0x11	; 17
	.db #0x11	; 17
	.db #0x11	; 17
	.db #0x11	; 17
	.db #0x11	; 17
	.db #0x11	; 17
	.db #0x11	; 17
	.db #0x11	; 17
	.db #0x11	; 17
	.db #0x11	; 17
	.db #0x11	; 17
	.db #0x11	; 17
	.db #0x11	; 17
	.db #0x11	; 17
	.db #0x11	; 17
	.db #0x11	; 17
	.db #0x11	; 17
	.db #0x11	; 17
	.db #0x11	; 17
	.db #0x11	; 17
	.db #0x11	; 17
	.db #0x11	; 17
	.db #0x11	; 17
	.db #0x11	; 17
	.db #0x11	; 17
	.db #0x11	; 17
	.db #0x11	; 17
	.db #0x11	; 17
	.db #0x11	; 17
	.db #0x11	; 17
	.db #0x11	; 17
	.db #0x11	; 17
	.db #0x11	; 17
	.db #0x11	; 17
	.db #0x11	; 17
	.db #0x11	; 17
	.db #0x11	; 17
	.db #0x11	; 17
	.db #0x11	; 17
	.db #0x11	; 17
	.db #0x11	; 17
	.db #0x11	; 17
	.db #0x11	; 17
	.db #0x11	; 17
	.db #0x11	; 17
	.db #0x11	; 17
	.db #0x11	; 17
	.db #0x11	; 17
	.db #0x11	; 17
	.db #0x11	; 17
	.db #0x11	; 17
	.db #0x11	; 17
	.db #0x11	; 17
	.db #0x11	; 17
	.db #0x11	; 17
	.db #0x11	; 17
	.db #0x11	; 17
	.db #0x11	; 17
	.db #0x11	; 17
	.db #0x11	; 17
	.db #0x11	; 17
	.db #0x11	; 17
	.db #0x11	; 17
	.db #0xf1	; 241
	.db #0xf1	; 241
	.db #0xf1	; 241
	.db #0xf1	; 241
	.db #0xf1	; 241
	.db #0x11	; 17
	.db #0x11	; 17
	.db #0x11	; 17
	.db #0xf1	; 241
	.db #0xf1	; 241
	.db #0x1f	; 31
	.db #0xf1	; 241
	.db #0xf1	; 241
	.db #0x11	; 17
	.db #0x11	; 17
	.db #0x11	; 17
	.db #0xf1	; 241
	.db #0xf1	; 241
	.db #0xf1	; 241
	.db #0xf1	; 241
	.db #0xf1	; 241
	.db #0x11	; 17
	.db #0x11	; 17
	.db #0x11	; 17
	.db #0xf1	; 241
	.db #0x1f	; 31
	.db #0x1f	; 31
	.db #0xf1	; 241
	.db #0xf1	; 241
	.db #0x11	; 17
	.db #0x11	; 17
	.db #0x11	; 17
	.db #0xf1	; 241
	.db #0xf1	; 241
	.db #0xf1	; 241
	.db #0xf1	; 241
	.db #0xf1	; 241
	.db #0x11	; 17
	.db #0x11	; 17
	.db #0x11	; 17
	.db #0x1f	; 31
	.db #0x1f	; 31
	.db #0x1f	; 31
	.db #0x11	; 17
	.db #0x11	; 17
	.db #0x11	; 17
	.db #0x11	; 17
	.db #0x11	; 17
	.db #0xf1	; 241
	.db #0xf1	; 241
	.db #0xf1	; 241
	.db #0xf1	; 241
	.db #0xf1	; 241
	.db #0x11	; 17
	.db #0x11	; 17
	.db #0x11	; 17
	.db #0xf1	; 241
	.db #0xf1	; 241
	.db #0xf1	; 241
	.db #0x11	; 17
	.db #0x11	; 17
	.db #0x11	; 17
	.db #0x11	; 17
	.db #0x11	; 17
	.db #0xf1	; 241
	.db #0xf1	; 241
	.db #0xf1	; 241
	.db #0xf1	; 241
	.db #0xf1	; 241
	.db #0x11	; 17
	.db #0x11	; 17
	.db #0x11	; 17
	.db #0xf1	; 241
	.db #0xf1	; 241
	.db #0xf1	; 241
	.db #0xf1	; 241
	.db #0xf1	; 241
	.db #0x11	; 17
	.db #0x11	; 17
	.db #0x11	; 17
	.db #0x11	; 17
	.db #0x11	; 17
	.db #0x11	; 17
	.db #0x11	; 17
	.db #0x11	; 17
	.db #0x11	; 17
	.db #0x11	; 17
	.db #0x11	; 17
	.db #0x11	; 17
	.db #0x11	; 17
	.db #0x11	; 17
	.db #0x11	; 17
	.db #0x11	; 17
	.db #0x11	; 17
	.db #0x11	; 17
	.db #0x11	; 17
	.db #0x11	; 17
	.db #0x11	; 17
	.db #0x11	; 17
	.db #0x11	; 17
	.db #0x11	; 17
	.db #0x11	; 17
	.db #0x11	; 17
	.db #0x11	; 17
	.db #0x11	; 17
	.db #0x11	; 17
	.db #0x11	; 17
	.db #0x11	; 17
	.db #0x11	; 17
	.db #0x11	; 17
	.db #0x11	; 17
	.db #0x11	; 17
	.db #0x11	; 17
	.db #0x11	; 17
	.db #0x11	; 17
	.db #0x11	; 17
	.db #0x11	; 17
	.db #0x11	; 17
	.db #0x11	; 17
	.db #0x11	; 17
	.db #0x11	; 17
	.db #0x11	; 17
	.db #0x11	; 17
	.db #0x11	; 17
	.db #0x11	; 17
	.db #0x11	; 17
	.db #0x11	; 17
	.db #0x11	; 17
	.db #0x11	; 17
	.db #0x11	; 17
	.db #0x11	; 17
	.db #0x11	; 17
	.db #0x11	; 17
	.db #0x11	; 17
	.db #0x11	; 17
	.db #0x11	; 17
	.db #0x11	; 17
	.db #0x11	; 17
	.db #0x11	; 17
	.db #0x11	; 17
	.db #0x11	; 17
	.db #0x11	; 17
	.db #0x11	; 17
	.db #0x11	; 17
	.db #0x11	; 17
	.db #0x11	; 17
	.db #0x11	; 17
	.db #0x11	; 17
	.db #0x11	; 17
	.db #0x11	; 17
	.db #0x11	; 17
	.db #0x11	; 17
	.db #0x11	; 17
	.db #0x11	; 17
	.db #0x11	; 17
	.db #0x11	; 17
	.db #0x11	; 17
	.db #0x11	; 17
	.db #0x11	; 17
	.db #0x11	; 17
	.db #0x11	; 17
	.db #0x11	; 17
	.db #0x11	; 17
	.db #0x11	; 17
	.db #0x11	; 17
	.db #0x11	; 17
	.db #0x11	; 17
	.db #0x11	; 17
	.db #0x11	; 17
	.db #0x11	; 17
	.db #0x11	; 17
	.db #0x11	; 17
	.db #0x11	; 17
	.db #0x11	; 17
	.db #0x11	; 17
	.db #0x11	; 17
	.db #0x11	; 17
	.db #0x11	; 17
	.db #0x11	; 17
	.db #0x11	; 17
	.db #0x11	; 17
	.db #0x11	; 17
	.db #0x11	; 17
	.db #0x11	; 17
	.db #0x11	; 17
	.db #0x11	; 17
	.db #0x11	; 17
	.db #0x11	; 17
	.db #0x11	; 17
	.db #0x11	; 17
	.db #0x11	; 17
	.db #0x11	; 17
	.db #0x11	; 17
	.db #0x11	; 17
	.db #0x11	; 17
	.db #0x11	; 17
	.db #0x11	; 17
	.db #0x11	; 17
	.db #0x11	; 17
	.db #0x11	; 17
	.db #0x11	; 17
	.db #0x11	; 17
	.db #0x11	; 17
	.db #0x11	; 17
	.db #0x11	; 17
	.db #0x11	; 17
	.db #0x11	; 17
	.db #0x11	; 17
	.db #0x11	; 17
	.db #0x11	; 17
	.db #0x11	; 17
	.db #0x11	; 17
	.db #0x11	; 17
	.db #0x11	; 17
	.db #0x11	; 17
	.db #0x11	; 17
	.db #0x11	; 17
	.db #0x11	; 17
	.db #0x11	; 17
	.db #0x11	; 17
	.db #0x11	; 17
	.db #0x11	; 17
	.db #0x11	; 17
	.db #0x11	; 17
	.db #0x11	; 17
	.db #0x11	; 17
	.db #0x11	; 17
	.db #0x11	; 17
	.db #0x11	; 17
	.db #0x11	; 17
	.db #0x11	; 17
	.db #0x11	; 17
	.db #0x11	; 17
	.db #0x11	; 17
	.db #0x11	; 17
	.db #0x11	; 17
	.db #0x11	; 17
	.db #0x11	; 17
	.db #0x11	; 17
	.db #0x11	; 17
	.db #0x11	; 17
	.db #0x11	; 17
	.db #0x11	; 17
	.db #0x11	; 17
	.db #0x11	; 17
	.db #0x11	; 17
	.db #0x11	; 17
	.db #0x11	; 17
	.db #0x11	; 17
	.db #0x11	; 17
	.db #0x11	; 17
	.db #0x11	; 17
	.db #0x11	; 17
	.db #0x31	; 49	'1'
	.db #0x31	; 49	'1'
	.db #0x31	; 49	'1'
	.db #0x31	; 49	'1'
	.db #0x31	; 49	'1'
	.db #0x31	; 49	'1'
	.db #0x31	; 49	'1'
	.db #0x31	; 49	'1'
	.db #0x31	; 49	'1'
	.db #0x11	; 17
	.db #0x11	; 17
	.db #0x31	; 49	'1'
	.db #0x31	; 49	'1'
	.db #0x31	; 49	'1'
	.db #0x31	; 49	'1'
	.db #0x31	; 49	'1'
	.db #0x31	; 49	'1'
	.db #0x31	; 49	'1'
	.db #0x31	; 49	'1'
	.db #0x31	; 49	'1'
	.db #0x31	; 49	'1'
	.db #0x31	; 49	'1'
	.db #0x31	; 49	'1'
	.db #0x31	; 49	'1'
	.db #0x31	; 49	'1'
	.db #0x31	; 49	'1'
	.db #0x31	; 49	'1'
	.db #0x31	; 49	'1'
	.db #0x31	; 49	'1'
	.db #0x31	; 49	'1'
	.db #0x31	; 49	'1'
	.db #0x31	; 49	'1'
	.db #0x31	; 49	'1'
	.db #0x31	; 49	'1'
	.db #0x31	; 49	'1'
	.db #0x31	; 49	'1'
	.db #0x31	; 49	'1'
	.db #0x31	; 49	'1'
	.db #0x31	; 49	'1'
	.db #0x31	; 49	'1'
	.db #0x11	; 17
	.db #0x11	; 17
	.db #0x31	; 49	'1'
	.db #0x31	; 49	'1'
	.db #0x31	; 49	'1'
	.db #0x11	; 17
	.db #0x11	; 17
	.db #0x11	; 17
	.db #0x31	; 49	'1'
	.db #0x31	; 49	'1'
	.db #0x31	; 49	'1'
	.db #0x31	; 49	'1'
	.db #0x31	; 49	'1'
	.db #0x31	; 49	'1'
	.db #0x31	; 49	'1'
	.db #0x31	; 49	'1'
	.db #0x31	; 49	'1'
	.db #0x31	; 49	'1'
	.db #0x31	; 49	'1'
	.db #0x31	; 49	'1'
	.db #0x31	; 49	'1'
	.db #0x31	; 49	'1'
	.db #0x31	; 49	'1'
	.db #0x31	; 49	'1'
	.db #0x31	; 49	'1'
	.db #0x31	; 49	'1'
	.db #0x31	; 49	'1'
	.db #0x31	; 49	'1'
	.db #0x31	; 49	'1'
	.db #0x31	; 49	'1'
	.db #0x31	; 49	'1'
	.db #0x31	; 49	'1'
	.db #0x31	; 49	'1'
	.db #0x31	; 49	'1'
	.db #0x31	; 49	'1'
	.db #0x31	; 49	'1'
	.db #0x31	; 49	'1'
	.db #0x31	; 49	'1'
	.db #0x31	; 49	'1'
	.db #0x31	; 49	'1'
	.db #0x11	; 17
	.db #0x11	; 17
	.db #0x11	; 17
	.db #0x11	; 17
	.db #0x11	; 17
	.db #0x11	; 17
	.db #0x11	; 17
	.db #0x11	; 17
	.db #0x11	; 17
	.db #0x11	; 17
	.db #0x11	; 17
	.db #0x11	; 17
	.db #0x11	; 17
	.db #0x11	; 17
	.db #0x11	; 17
	.db #0x11	; 17
	.db #0x11	; 17
	.db #0x11	; 17
	.db #0x11	; 17
	.db #0x11	; 17
	.db #0x11	; 17
	.db #0x11	; 17
	.db #0x11	; 17
	.db #0x11	; 17
	.db #0x11	; 17
	.db #0x11	; 17
	.db #0x11	; 17
	.db #0x11	; 17
	.db #0x11	; 17
	.db #0x11	; 17
	.db #0x11	; 17
	.db #0x11	; 17
	.db #0x11	; 17
	.db #0x11	; 17
	.db #0x11	; 17
	.db #0x11	; 17
	.db #0x11	; 17
	.db #0x11	; 17
	.db #0x11	; 17
	.db #0x11	; 17
	.db #0x11	; 17
	.db #0x11	; 17
	.db #0x11	; 17
	.db #0x11	; 17
	.db #0x11	; 17
	.db #0x11	; 17
	.db #0x11	; 17
	.db #0x11	; 17
	.db #0x11	; 17
	.db #0x11	; 17
	.db #0x11	; 17
	.db #0x11	; 17
	.db #0x11	; 17
	.db #0x11	; 17
	.db #0x11	; 17
	.db #0x11	; 17
	.db #0x11	; 17
	.db #0x11	; 17
	.db #0x11	; 17
	.db #0x11	; 17
	.db #0x11	; 17
	.db #0x11	; 17
	.db #0x11	; 17
	.db #0x11	; 17
	.db #0x11	; 17
	.db #0x11	; 17
	.db #0x11	; 17
	.db #0x11	; 17
	.db #0x11	; 17
	.db #0x11	; 17
	.db #0x11	; 17
	.db #0x11	; 17
	.db #0x11	; 17
	.db #0x11	; 17
	.db #0x11	; 17
	.db #0x11	; 17
	.db #0x11	; 17
	.db #0x11	; 17
	.db #0x11	; 17
	.db #0x11	; 17
	.db #0x11	; 17
	.db #0x11	; 17
	.db #0x11	; 17
	.db #0x11	; 17
	.db #0x11	; 17
	.db #0x11	; 17
	.db #0x11	; 17
	.db #0x11	; 17
	.db #0x11	; 17
	.db #0x11	; 17
	.db #0x11	; 17
	.db #0x11	; 17
	.db #0x11	; 17
	.db #0x11	; 17
	.db #0x11	; 17
	.db #0x11	; 17
	.db #0x11	; 17
	.db #0x11	; 17
	.db #0x11	; 17
	.db #0x11	; 17
	.db #0x11	; 17
	.db #0x11	; 17
	.db #0x11	; 17
	.db #0x11	; 17
	.db #0x11	; 17
	.db #0x11	; 17
	.db #0x11	; 17
	.db #0x11	; 17
	.db #0x11	; 17
	.db #0x11	; 17
	.db #0x11	; 17
	.db #0x11	; 17
	.db #0x11	; 17
	.db #0x11	; 17
	.db #0x11	; 17
	.db #0x11	; 17
	.db #0x11	; 17
	.db #0x11	; 17
	.db #0x11	; 17
	.db #0x11	; 17
	.db #0x11	; 17
	.db #0x11	; 17
	.db #0x11	; 17
	.db #0x11	; 17
	.db #0x11	; 17
	.db #0x11	; 17
	.db #0x11	; 17
	.db #0x11	; 17
	.db #0x11	; 17
	.db #0x11	; 17
	.db #0x11	; 17
	.db #0x11	; 17
	.db #0x11	; 17
	.db #0x11	; 17
	.db #0x11	; 17
	.db #0x11	; 17
	.db #0x11	; 17
	.db #0x11	; 17
	.db #0x11	; 17
	.db #0x11	; 17
	.db #0x11	; 17
	.db #0x11	; 17
	.db #0x11	; 17
	.db #0x11	; 17
	.db #0x11	; 17
	.db #0x11	; 17
	.db #0x11	; 17
	.db #0x11	; 17
	.db #0x11	; 17
	.db #0x11	; 17
	.db #0x11	; 17
	.db #0x11	; 17
	.db #0x11	; 17
	.db #0x11	; 17
	.db #0x11	; 17
	.db #0x11	; 17
	.db #0x11	; 17
	.db #0x11	; 17
	.db #0x11	; 17
	.db #0x11	; 17
	.db #0x11	; 17
	.db #0x11	; 17
	.db #0x11	; 17
	.db #0x11	; 17
	.db #0x11	; 17
	.db #0x11	; 17
	.db #0x11	; 17
	.db #0x11	; 17
	.db #0x11	; 17
	.db #0x11	; 17
	.db #0x11	; 17
	.db #0x11	; 17
	.db #0x11	; 17
	.db #0x11	; 17
	.db #0x11	; 17
	.db #0x11	; 17
	.db #0x1c	; 28
	.db #0x1c	; 28
	.db #0x1c	; 28
	.db #0x1c	; 28
	.db #0x1c	; 28
	.db #0x11	; 17
	.db #0x11	; 17
	.db #0x11	; 17
	.db #0x1c	; 28
	.db #0x1c	; 28
	.db #0x1c	; 28
	.db #0x1c	; 28
	.db #0x1c	; 28
	.db #0x11	; 17
	.db #0x11	; 17
	.db #0x11	; 17
	.db #0x1c	; 28
	.db #0x1c	; 28
	.db #0x1c	; 28
	.db #0x1c	; 28
	.db #0x1c	; 28
	.db #0x11	; 17
	.db #0x11	; 17
	.db #0x11	; 17
	.db #0x1c	; 28
	.db #0x1c	; 28
	.db #0x1c	; 28
	.db #0x1c	; 28
	.db #0x1c	; 28
	.db #0x11	; 17
	.db #0x11	; 17
	.db #0x11	; 17
	.db #0x1c	; 28
	.db #0x1c	; 28
	.db #0x1c	; 28
	.db #0x1c	; 28
	.db #0x1c	; 28
	.db #0x11	; 17
	.db #0x11	; 17
	.db #0x11	; 17
	.db #0x11	; 17
	.db #0x11	; 17
	.db #0x1c	; 28
	.db #0x1c	; 28
	.db #0x1c	; 28
	.db #0x11	; 17
	.db #0x11	; 17
	.db #0x11	; 17
	.db #0x1c	; 28
	.db #0x1c	; 28
	.db #0x1c	; 28
	.db #0x1c	; 28
	.db #0x1c	; 28
	.db #0x11	; 17
	.db #0x11	; 17
	.db #0x11	; 17
	.db #0x1c	; 28
	.db #0x1c	; 28
	.db #0x1c	; 28
	.db #0x1c	; 28
	.db #0x1c	; 28
	.db #0x11	; 17
	.db #0x11	; 17
	.db #0x11	; 17
	.db #0x1c	; 28
	.db #0x1c	; 28
	.db #0x1c	; 28
	.db #0x1c	; 28
	.db #0x1c	; 28
	.db #0x11	; 17
	.db #0x11	; 17
	.db #0x11	; 17
	.db #0x1c	; 28
	.db #0x1c	; 28
	.db #0x1c	; 28
	.db #0x1c	; 28
	.db #0x1c	; 28
	.db #0x11	; 17
	.db #0x11	; 17
	.db #0x11	; 17
	.db #0x11	; 17
	.db #0x11	; 17
	.db #0x11	; 17
	.db #0x11	; 17
	.db #0x11	; 17
	.db #0x11	; 17
	.db #0x11	; 17
	.db #0x11	; 17
	.db #0x11	; 17
	.db #0x11	; 17
	.db #0x11	; 17
	.db #0x11	; 17
	.db #0x11	; 17
	.db #0x11	; 17
	.db #0x11	; 17
	.db #0x11	; 17
	.db #0x11	; 17
	.db #0x11	; 17
	.db #0x11	; 17
	.db #0x11	; 17
	.db #0x11	; 17
	.db #0x11	; 17
	.db #0x11	; 17
	.db #0x11	; 17
	.db #0x11	; 17
	.db #0x11	; 17
	.db #0x11	; 17
	.db #0x11	; 17
	.db #0x11	; 17
	.db #0x11	; 17
	.db #0x11	; 17
	.db #0x11	; 17
	.db #0x11	; 17
	.db #0x11	; 17
	.db #0x11	; 17
	.db #0x11	; 17
	.db #0x11	; 17
	.db #0x11	; 17
	.db #0x11	; 17
	.db #0x11	; 17
	.db #0x11	; 17
	.db #0x11	; 17
	.db #0x11	; 17
	.db #0x11	; 17
	.db #0x11	; 17
	.db #0x11	; 17
	.db #0x11	; 17
	.db #0x11	; 17
	.db #0x11	; 17
	.db #0x11	; 17
	.db #0x11	; 17
	.db #0x11	; 17
	.db #0x11	; 17
	.db #0x11	; 17
	.db #0x11	; 17
	.db #0x11	; 17
	.db #0x11	; 17
	.db #0x11	; 17
	.db #0x11	; 17
	.db #0x11	; 17
	.db #0x11	; 17
	.db #0x11	; 17
	.db #0x11	; 17
	.db #0x11	; 17
	.db #0x11	; 17
	.db #0x11	; 17
	.db #0x11	; 17
	.db #0x11	; 17
	.db #0x11	; 17
	.db #0x11	; 17
	.db #0x11	; 17
	.db #0x11	; 17
	.db #0x11	; 17
	.db #0x11	; 17
	.db #0x11	; 17
	.db #0x11	; 17
	.db #0x11	; 17
	.db #0x11	; 17
	.db #0x11	; 17
	.db #0x11	; 17
	.db #0x11	; 17
	.db #0x11	; 17
	.db #0x11	; 17
	.db #0x11	; 17
	.db #0x11	; 17
	.db #0x11	; 17
	.db #0x11	; 17
	.db #0x11	; 17
	.db #0x11	; 17
	.db #0x11	; 17
	.db #0x11	; 17
	.db #0x11	; 17
	.db #0x11	; 17
	.db #0x11	; 17
	.db #0x11	; 17
	.db #0x11	; 17
	.db #0x11	; 17
	.db #0x11	; 17
	.db #0x11	; 17
	.db #0x11	; 17
	.db #0x11	; 17
	.db #0x11	; 17
	.db #0x11	; 17
	.db #0x11	; 17
	.db #0x11	; 17
	.db #0x11	; 17
	.db #0x11	; 17
	.db #0x11	; 17
	.db #0x11	; 17
	.db #0x11	; 17
	.db #0x11	; 17
	.db #0x11	; 17
	.db #0x11	; 17
	.db #0x11	; 17
	.db #0x11	; 17
	.db #0x11	; 17
	.db #0x11	; 17
	.db #0x11	; 17
	.db #0x11	; 17
	.db #0x11	; 17
	.db #0x11	; 17
	.db #0x11	; 17
	.db #0x11	; 17
	.db #0x11	; 17
	.db #0x11	; 17
	.db #0x11	; 17
	.db #0x11	; 17
	.db #0x11	; 17
	.db #0x11	; 17
	.db #0x11	; 17
	.db #0x11	; 17
	.db #0x11	; 17
	.db #0x11	; 17
	.db #0x11	; 17
	.db #0x11	; 17
	.db #0x11	; 17
	.db #0x11	; 17
	.db #0x11	; 17
	.db #0x11	; 17
	.db #0x11	; 17
	.db #0x11	; 17
	.db #0x11	; 17
	.db #0x11	; 17
	.db #0x11	; 17
	.db #0x11	; 17
	.db #0x11	; 17
	.db #0x11	; 17
	.db #0x11	; 17
	.db #0x11	; 17
	.db #0x11	; 17
	.db #0x11	; 17
	.db #0x11	; 17
	.db #0x11	; 17
	.db #0x11	; 17
	.db #0x11	; 17
	.db #0x11	; 17
	.db #0x11	; 17
	.db #0x11	; 17
	.db #0x11	; 17
	.db #0x11	; 17
	.db #0x11	; 17
	.db #0x11	; 17
	.db #0x11	; 17
	.db #0x11	; 17
	.db #0x11	; 17
	.db #0x11	; 17
	.db #0x11	; 17
	.db #0x11	; 17
	.db #0x11	; 17
	.db #0x11	; 17
	.db #0x11	; 17
	.db #0x11	; 17
	.db #0x11	; 17
	.db #0x11	; 17
	.db #0x11	; 17
	.db #0x11	; 17
	.db #0xf1	; 241
	.db #0xf1	; 241
	.db #0xf1	; 241
	.db #0xf1	; 241
	.db #0xf1	; 241
	.db #0xf1	; 241
	.db #0xf1	; 241
	.db #0x11	; 17
	.db #0x11	; 17
	.db #0x11	; 17
	.db #0x11	; 17
	.db #0x11	; 17
	.db #0x11	; 17
	.db #0x11	; 17
	.db #0x11	; 17
	.db #0x11	; 17
	.db #0xf1	; 241
	.db #0xf1	; 241
	.db #0xf1	; 241
	.db #0xf1	; 241
	.db #0xf1	; 241
	.db #0x11	; 17
	.db #0xf1	; 241
	.db #0x11	; 17
	.db #0xf1	; 241
	.db #0xf1	; 241
	.db #0xf1	; 241
	.db #0x11	; 17
	.db #0x11	; 17
	.db #0x11	; 17
	.db #0x11	; 17
	.db #0x11	; 17
	.db #0xf1	; 241
	.db #0xf1	; 241
	.db #0xf1	; 241
	.db #0xf1	; 241
	.db #0xf1	; 241
	.db #0xf1	; 241
	.db #0xf1	; 241
	.db #0x11	; 17
	.db #0xf1	; 241
	.db #0xf1	; 241
	.db #0xf1	; 241
	.db #0xf1	; 241
	.db #0xf1	; 241
	.db #0xf1	; 241
	.db #0xf1	; 241
	.db #0x11	; 17
	.db #0xf1	; 241
	.db #0xf1	; 241
	.db #0xf1	; 241
	.db #0xf1	; 241
	.db #0xf1	; 241
	.db #0xf1	; 241
	.db #0xf1	; 241
	.db #0x11	; 17
	.db #0xf1	; 241
	.db #0xf1	; 241
	.db #0xf1	; 241
	.db #0xf1	; 241
	.db #0xf1	; 241
	.db #0xf1	; 241
	.db #0xf1	; 241
	.db #0x11	; 17
	.db #0xf1	; 241
	.db #0xf1	; 241
	.db #0xf1	; 241
	.db #0x11	; 17
	.db #0x11	; 17
	.db #0x11	; 17
	.db #0x11	; 17
	.db #0x11	; 17
	.db #0xf1	; 241
	.db #0xf1	; 241
	.db #0xf1	; 241
	.db #0xf1	; 241
	.db #0xf1	; 241
	.db #0xf1	; 241
	.db #0xf1	; 241
	.db #0x11	; 17
	.db #0xf1	; 241
	.db #0xf1	; 241
	.db #0xf1	; 241
	.db #0xf1	; 241
	.db #0xf1	; 241
	.db #0xf1	; 241
	.db #0xf1	; 241
	.db #0x11	; 17
	.db #0x11	; 17
	.db #0xf1	; 241
	.db #0xf1	; 241
	.db #0xf1	; 241
	.db #0xf1	; 241
	.db #0xf1	; 241
	.db #0x11	; 17
	.db #0x11	; 17
	.db #0x11	; 17
	.db #0xf1	; 241
	.db #0xf1	; 241
	.db #0xf1	; 241
	.db #0xf1	; 241
	.db #0xf1	; 241
	.db #0x11	; 17
	.db #0x11	; 17
	.db #0x11	; 17
	.db #0x11	; 17
	.db #0x11	; 17
	.db #0x11	; 17
	.db #0x11	; 17
	.db #0xf1	; 241
	.db #0xf1	; 241
	.db #0xf1	; 241
	.db #0x11	; 17
	.db #0x11	; 17
	.db #0x11	; 17
	.db #0xf1	; 241
	.db #0x11	; 17
	.db #0x11	; 17
	.db #0x11	; 17
	.db #0x11	; 17
	.db #0x11	; 17
	.db #0x11	; 17
	.db #0x11	; 17
	.db #0x11	; 17
	.db #0x11	; 17
	.db #0xf1	; 241
	.db #0xf1	; 241
	.db #0x11	; 17
	.db #0x11	; 17
	.db #0xf1	; 241
	.db #0xf1	; 241
	.db #0xf1	; 241
	.db #0xf1	; 241
	.db #0xf1	; 241
	.db #0x11	; 17
	.db #0x11	; 17
	.db #0xf1	; 241
	.db #0xf1	; 241
	.db #0xf1	; 241
	.db #0xf1	; 241
	.db #0xf1	; 241
	.db #0xf1	; 241
	.db #0xf1	; 241
	.db #0x11	; 17
	.db #0xf1	; 241
	.db #0xf1	; 241
	.db #0xf1	; 241
	.db #0xf1	; 241
	.db #0xf1	; 241
	.db #0xf1	; 241
	.db #0xf1	; 241
	.db #0x11	; 17
	.db #0xf1	; 241
	.db #0xf1	; 241
	.db #0xf1	; 241
	.db #0xf1	; 241
	.db #0xf1	; 241
	.db #0xf1	; 241
	.db #0xf1	; 241
	.db #0x11	; 17
	.db #0xf1	; 241
	.db #0xf1	; 241
	.db #0xf1	; 241
	.db #0xf1	; 241
	.db #0xf1	; 241
	.db #0xf1	; 241
	.db #0xf1	; 241
	.db #0x11	; 17
	.db #0xf1	; 241
	.db #0xf1	; 241
	.db #0xf1	; 241
	.db #0xf1	; 241
	.db #0xf1	; 241
	.db #0xf1	; 241
	.db #0xf1	; 241
	.db #0x11	; 17
	.db #0xf1	; 241
	.db #0xf1	; 241
	.db #0xf1	; 241
	.db #0xf1	; 241
	.db #0xf1	; 241
	.db #0xf1	; 241
	.db #0xf1	; 241
	.db #0x11	; 17
	.db #0xf1	; 241
	.db #0xf1	; 241
	.db #0xf1	; 241
	.db #0xf1	; 241
	.db #0xf1	; 241
	.db #0xf1	; 241
	.db #0xf1	; 241
	.db #0x11	; 17
	.db #0xf1	; 241
	.db #0xf1	; 241
	.db #0xf1	; 241
	.db #0xf1	; 241
	.db #0xf1	; 241
	.db #0xf1	; 241
	.db #0xf1	; 241
	.db #0x11	; 17
	.db #0xf1	; 241
	.db #0xf1	; 241
	.db #0xf1	; 241
	.db #0xf1	; 241
	.db #0xf1	; 241
	.db #0xf1	; 241
	.db #0xf1	; 241
	.db #0x11	; 17
	.db #0xf1	; 241
	.db #0xf1	; 241
	.db #0xf1	; 241
	.db #0xf1	; 241
	.db #0xf1	; 241
	.db #0xf1	; 241
	.db #0xf1	; 241
	.db #0x11	; 17
	.db #0x11	; 17
	.db #0x11	; 17
	.db #0xf1	; 241
	.db #0xf1	; 241
	.db #0x11	; 17
	.db #0xf1	; 241
	.db #0xf1	; 241
	.db #0x11	; 17
	.db #0x11	; 17
	.db #0x11	; 17
	.db #0xf1	; 241
	.db #0xf1	; 241
	.db #0x11	; 17
	.db #0xf1	; 241
	.db #0xf1	; 241
	.db #0xf1	; 241
	.db #0xf1	; 241
	.db #0xf1	; 241
	.db #0xf1	; 241
	.db #0xf1	; 241
	.db #0xf1	; 241
	.db #0xf1	; 241
	.db #0xf1	; 241
	.db #0x11	; 17
	.db #0x11	; 17
	.db #0x11	; 17
	.db #0xf1	; 241
	.db #0x11	; 17
	.db #0xf1	; 241
	.db #0x11	; 17
	.db #0x11	; 17
	.db #0x11	; 17
	.db #0xf1	; 241
	.db #0xf1	; 241
	.db #0xf1	; 241
	.db #0xf1	; 241
	.db #0xf1	; 241
	.db #0xf1	; 241
	.db #0xf1	; 241
	.db #0x11	; 17
	.db #0xf1	; 241
	.db #0xf1	; 241
	.db #0xf1	; 241
	.db #0xf1	; 241
	.db #0xf1	; 241
	.db #0x11	; 17
	.db #0xe1	; 225
	.db #0x11	; 17
	.db #0xf1	; 241
	.db #0xf1	; 241
	.db #0xf1	; 241
	.db #0xf1	; 241
	.db #0xf1	; 241
	.db #0xf1	; 241
	.db #0xf1	; 241
	.db #0x11	; 17
	.db #0xf1	; 241
	.db #0xf1	; 241
	.db #0xf1	; 241
	.db #0xf1	; 241
	.db #0xf1	; 241
	.db #0xf1	; 241
	.db #0xf1	; 241
	.db #0x11	; 17
	.db #0xf1	; 241
	.db #0xf1	; 241
	.db #0xf1	; 241
	.db #0xf1	; 241
	.db #0xf1	; 241
	.db #0xf1	; 241
	.db #0xf1	; 241
	.db #0x11	; 17
	.db #0xf1	; 241
	.db #0xf1	; 241
	.db #0xf1	; 241
	.db #0xf1	; 241
	.db #0xf1	; 241
	.db #0xf1	; 241
	.db #0xf1	; 241
	.db #0x11	; 17
	.db #0xf1	; 241
	.db #0xf1	; 241
	.db #0xf1	; 241
	.db #0xf1	; 241
	.db #0xf1	; 241
	.db #0xf1	; 241
	.db #0xf1	; 241
	.db #0x11	; 17
	.db #0xf1	; 241
	.db #0xf1	; 241
	.db #0xf1	; 241
	.db #0xf1	; 241
	.db #0xf1	; 241
	.db #0xf1	; 241
	.db #0xf1	; 241
	.db #0x11	; 17
	.db #0xf1	; 241
	.db #0xf1	; 241
	.db #0xf1	; 241
	.db #0xf1	; 241
	.db #0xf1	; 241
	.db #0xf1	; 241
	.db #0xf1	; 241
	.db #0x11	; 17
	.db #0xf1	; 241
	.db #0xf1	; 241
	.db #0xf1	; 241
	.db #0xf1	; 241
	.db #0xf1	; 241
	.db #0xf1	; 241
	.db #0xf1	; 241
	.db #0x11	; 17
	.db #0xf1	; 241
	.db #0xf1	; 241
	.db #0xf1	; 241
	.db #0xf1	; 241
	.db #0xf1	; 241
	.db #0xf1	; 241
	.db #0xf1	; 241
	.db #0x11	; 17
	.db #0xf1	; 241
	.db #0xf1	; 241
	.db #0xf1	; 241
	.db #0xf1	; 241
	.db #0xf1	; 241
	.db #0xf1	; 241
	.db #0xf1	; 241
	.db #0x11	; 17
	.db #0xf1	; 241
	.db #0xf1	; 241
	.db #0xf1	; 241
	.db #0xf1	; 241
	.db #0xf1	; 241
	.db #0xf1	; 241
	.db #0xf1	; 241
	.db #0x11	; 17
	.db #0xf1	; 241
	.db #0xf1	; 241
	.db #0xf1	; 241
	.db #0xf1	; 241
	.db #0xf1	; 241
	.db #0xf1	; 241
	.db #0xf1	; 241
	.db #0x11	; 17
	.db #0xf1	; 241
	.db #0xf1	; 241
	.db #0xf1	; 241
	.db #0xf1	; 241
	.db #0xf1	; 241
	.db #0xf1	; 241
	.db #0xf1	; 241
	.db #0x11	; 17
	.db #0xf1	; 241
	.db #0xf1	; 241
	.db #0xf1	; 241
	.db #0xf1	; 241
	.db #0xf1	; 241
	.db #0xf1	; 241
	.db #0xf1	; 241
	.db #0x11	; 17
	.db #0xf1	; 241
	.db #0xf1	; 241
	.db #0xf1	; 241
	.db #0xf1	; 241
	.db #0xf1	; 241
	.db #0xf1	; 241
	.db #0xf1	; 241
	.db #0x11	; 17
	.db #0xf1	; 241
	.db #0xf1	; 241
	.db #0xf1	; 241
	.db #0xf1	; 241
	.db #0xf1	; 241
	.db #0xf1	; 241
	.db #0xf1	; 241
	.db #0x11	; 17
	.db #0xf1	; 241
	.db #0xf1	; 241
	.db #0xf1	; 241
	.db #0xf1	; 241
	.db #0xf1	; 241
	.db #0xf1	; 241
	.db #0xf1	; 241
	.db #0x11	; 17
	.db #0xf1	; 241
	.db #0xf1	; 241
	.db #0xf1	; 241
	.db #0xf1	; 241
	.db #0xf1	; 241
	.db #0xf1	; 241
	.db #0xf1	; 241
	.db #0x11	; 17
	.db #0xf1	; 241
	.db #0xf1	; 241
	.db #0xf1	; 241
	.db #0xf1	; 241
	.db #0xf1	; 241
	.db #0xf1	; 241
	.db #0xf1	; 241
	.db #0x11	; 17
	.db #0xf1	; 241
	.db #0xf1	; 241
	.db #0xf1	; 241
	.db #0xf1	; 241
	.db #0xf1	; 241
	.db #0xf1	; 241
	.db #0xf1	; 241
	.db #0x11	; 17
	.db #0xf1	; 241
	.db #0xf1	; 241
	.db #0xf1	; 241
	.db #0xf1	; 241
	.db #0xf1	; 241
	.db #0xf1	; 241
	.db #0xf1	; 241
	.db #0x11	; 17
	.db #0xf1	; 241
	.db #0xf1	; 241
	.db #0xf1	; 241
	.db #0xf1	; 241
	.db #0xf1	; 241
	.db #0xf1	; 241
	.db #0xf1	; 241
	.db #0x11	; 17
	.db #0xf1	; 241
	.db #0xf1	; 241
	.db #0xf1	; 241
	.db #0xf1	; 241
	.db #0xf1	; 241
	.db #0xf1	; 241
	.db #0xf1	; 241
	.db #0x11	; 17
	.db #0xf1	; 241
	.db #0xf1	; 241
	.db #0xf1	; 241
	.db #0xf1	; 241
	.db #0xf1	; 241
	.db #0xf1	; 241
	.db #0xf1	; 241
	.db #0x11	; 17
	.db #0xf1	; 241
	.db #0xf1	; 241
	.db #0xf1	; 241
	.db #0xf1	; 241
	.db #0xf1	; 241
	.db #0xf1	; 241
	.db #0xf1	; 241
	.db #0x11	; 17
	.db #0xf1	; 241
	.db #0xf1	; 241
	.db #0xf1	; 241
	.db #0xf1	; 241
	.db #0xf1	; 241
	.db #0xf1	; 241
	.db #0xf1	; 241
	.db #0x11	; 17
	.db #0xf1	; 241
	.db #0xf1	; 241
	.db #0xf1	; 241
	.db #0xf1	; 241
	.db #0xf1	; 241
	.db #0xf1	; 241
	.db #0xf1	; 241
	.db #0x11	; 17
	.db #0xf1	; 241
	.db #0xf1	; 241
	.db #0xf1	; 241
	.db #0xf1	; 241
	.db #0xf1	; 241
	.db #0xf1	; 241
	.db #0xf1	; 241
	.db #0x11	; 17
	.db #0x11	; 17
	.db #0xf1	; 241
	.db #0xf1	; 241
	.db #0xf1	; 241
	.db #0xf1	; 241
	.db #0xf1	; 241
	.db #0x11	; 17
	.db #0x11	; 17
	.db #0xf1	; 241
	.db #0xf1	; 241
	.db #0xf1	; 241
	.db #0xf1	; 241
	.db #0xf1	; 241
	.db #0xf1	; 241
	.db #0xf1	; 241
	.db #0x11	; 17
	.db #0xf1	; 241
	.db #0xf1	; 241
	.db #0xf1	; 241
	.db #0xf1	; 241
	.db #0x11	; 17
	.db #0x11	; 17
	.db #0x11	; 17
	.db #0x11	; 17
	.db #0x11	; 17
	.db #0x14	; 20
	.db #0xb1	; 177
	.db #0x21	; 33
	.db #0x1c	; 28
	.db #0x1c	; 28
	.db #0xb1	; 177
	.db #0xba	; 186
	.db #0x11	; 17
	.db #0x61	; 97	'a'
	.db #0x61	; 97	'a'
	.db #0x61	; 97	'a'
	.db #0x61	; 97	'a'
	.db #0x61	; 97	'a'
	.db #0x61	; 97	'a'
	.db #0x11	; 17
	.db #0x11	; 17
	.db #0x11	; 17
	.db #0x11	; 17
	.db #0x11	; 17
	.db #0x11	; 17
	.db #0x11	; 17
	.db #0x11	; 17
	.db #0x11	; 17
	.db #0x11	; 17
	.db #0x11	; 17
	.db #0x11	; 17
	.db #0x11	; 17
	.db #0x11	; 17
	.db #0x11	; 17
	.db #0x11	; 17
	.db #0x11	; 17
	.db #0x11	; 17
	.db #0x11	; 17
	.db #0x11	; 17
	.db #0x11	; 17
	.db #0x11	; 17
	.db #0x11	; 17
	.db #0x11	; 17
	.db #0x11	; 17
	.db #0x11	; 17
	.db #0x11	; 17
	.db #0x11	; 17
	.db #0x11	; 17
	.db #0x11	; 17
	.db #0x11	; 17
	.db #0x11	; 17
	.db #0x11	; 17
	.db #0x11	; 17
	.db #0x11	; 17
	.db #0x11	; 17
	.db #0x11	; 17
	.db #0x11	; 17
	.db #0x11	; 17
	.db #0x11	; 17
	.db #0x11	; 17
	.db #0x11	; 17
	.db #0x11	; 17
	.db #0x11	; 17
	.db #0x11	; 17
	.db #0x11	; 17
	.db #0x11	; 17
	.db #0x11	; 17
	.db #0x11	; 17
	.db #0x11	; 17
	.db #0x11	; 17
	.db #0x11	; 17
	.db #0x11	; 17
	.db #0x11	; 17
	.db #0x11	; 17
	.db #0x11	; 17
	.db #0x11	; 17
	.db #0x11	; 17
	.db #0x11	; 17
	.db #0x11	; 17
	.db #0x11	; 17
	.db #0x11	; 17
	.db #0x11	; 17
	.db #0x11	; 17
	.db #0x11	; 17
	.db #0x11	; 17
	.db #0x11	; 17
	.db #0x11	; 17
	.db #0x11	; 17
	.db #0x11	; 17
	.db #0x11	; 17
	.db #0x11	; 17
	.db #0x11	; 17
	.db #0x11	; 17
	.db #0x11	; 17
	.db #0x11	; 17
	.db #0x11	; 17
	.db #0x11	; 17
	.db #0x11	; 17
	.db #0x11	; 17
	.db #0x11	; 17
	.db #0x11	; 17
	.db #0x11	; 17
	.db #0x11	; 17
	.db #0x11	; 17
	.db #0x11	; 17
	.db #0x11	; 17
	.db #0x11	; 17
	.db #0x11	; 17
	.db #0x11	; 17
	.db #0x11	; 17
	.db #0x11	; 17
	.db #0x11	; 17
	.db #0x11	; 17
	.db #0x11	; 17
	.db #0x11	; 17
	.db #0x11	; 17
	.db #0x11	; 17
	.db #0x11	; 17
	.db #0x11	; 17
	.db #0x11	; 17
	.db #0x11	; 17
	.db #0x11	; 17
	.db #0x11	; 17
	.db #0x11	; 17
	.db #0x11	; 17
	.db #0x11	; 17
	.db #0x11	; 17
	.db #0x11	; 17
	.db #0x11	; 17
	.db #0x11	; 17
	.db #0x11	; 17
	.db #0x11	; 17
	.db #0x11	; 17
	.db #0x11	; 17
	.db #0x11	; 17
	.db #0x11	; 17
	.db #0x11	; 17
	.db #0x11	; 17
	.db #0x11	; 17
	.db #0x11	; 17
	.db #0x11	; 17
	.db #0x11	; 17
	.db #0x11	; 17
	.db #0x11	; 17
	.db #0x11	; 17
	.db #0x11	; 17
	.db #0x11	; 17
	.db #0x11	; 17
	.db #0x11	; 17
	.db #0x11	; 17
	.db #0x11	; 17
	.db #0x11	; 17
	.db #0x11	; 17
	.db #0x11	; 17
	.db #0x11	; 17
	.db #0x11	; 17
	.db #0x11	; 17
	.db #0x11	; 17
	.db #0x11	; 17
	.db #0x11	; 17
	.db #0x11	; 17
	.db #0x11	; 17
	.db #0x11	; 17
	.db #0x11	; 17
	.db #0x11	; 17
	.db #0x11	; 17
	.db #0x11	; 17
	.db #0x11	; 17
	.db #0x11	; 17
	.db #0x11	; 17
	.db #0x11	; 17
	.db #0x11	; 17
	.db #0x11	; 17
	.db #0x11	; 17
	.db #0x11	; 17
	.db #0x11	; 17
	.db #0x11	; 17
	.db #0x11	; 17
	.db #0x11	; 17
	.db #0x11	; 17
	.db #0x11	; 17
	.db #0x11	; 17
	.db #0x11	; 17
	.db #0x11	; 17
	.db #0x11	; 17
	.db #0x11	; 17
	.db #0x11	; 17
	.db #0x11	; 17
	.db #0x11	; 17
	.db #0x11	; 17
	.db #0x11	; 17
	.db #0x11	; 17
	.db #0x11	; 17
	.db #0x11	; 17
	.db #0x11	; 17
	.db #0x11	; 17
	.db #0x11	; 17
	.db #0x11	; 17
	.db #0x11	; 17
	.db #0x11	; 17
	.db #0x11	; 17
	.db #0x11	; 17
	.db #0x11	; 17
	.db #0x11	; 17
	.db #0x11	; 17
	.db #0x11	; 17
	.db #0x11	; 17
	.db #0x11	; 17
	.db #0x11	; 17
	.db #0x11	; 17
	.db #0x11	; 17
	.db #0x11	; 17
	.db #0x11	; 17
	.db #0x11	; 17
	.db #0x11	; 17
	.db #0x11	; 17
	.db #0x11	; 17
	.db #0x11	; 17
	.db #0x11	; 17
	.db #0x11	; 17
	.db #0x11	; 17
	.db #0x11	; 17
	.db #0x11	; 17
	.db #0x11	; 17
	.db #0x11	; 17
	.db #0x11	; 17
	.db #0x11	; 17
	.db #0x11	; 17
	.db #0x11	; 17
	.db #0x11	; 17
	.db #0x11	; 17
	.db #0x11	; 17
	.db #0x11	; 17
	.db #0x11	; 17
	.db #0x11	; 17
	.db #0x11	; 17
	.db #0x11	; 17
	.db #0x11	; 17
	.db #0x11	; 17
	.db #0x11	; 17
	.db #0x11	; 17
	.db #0x11	; 17
	.db #0x11	; 17
	.db #0x11	; 17
	.db #0x11	; 17
	.db #0x11	; 17
	.db #0x11	; 17
	.db #0x11	; 17
	.db #0x11	; 17
	.db #0x11	; 17
	.db #0x11	; 17
	.db #0x11	; 17
	.db #0x11	; 17
	.db #0x11	; 17
	.db #0x11	; 17
	.db #0x11	; 17
	.db #0x11	; 17
	.db #0x11	; 17
	.db #0x11	; 17
	.db #0x11	; 17
	.db #0xba	; 186
	.db #0xba	; 186
	.db #0xba	; 186
	.db #0xba	; 186
	.db #0x1c	; 28
	.db #0x1c	; 28
	.db #0x21	; 33
	.db #0x11	; 17
	.db #0x11	; 17
	.db #0x11	; 17
	.db #0x11	; 17
	.db #0x11	; 17
	.db #0x11	; 17
	.db #0x11	; 17
	.db #0x11	; 17
	.db #0x11	; 17
	.db #0x11	; 17
	.db #0x11	; 17
	.db #0x11	; 17
	.db #0x11	; 17
	.db #0x11	; 17
	.db #0x11	; 17
	.db #0x11	; 17
	.db #0x11	; 17
	.db #0x11	; 17
	.db #0x11	; 17
	.db #0x11	; 17
	.db #0x11	; 17
	.db #0x11	; 17
	.db #0x11	; 17
	.db #0x11	; 17
	.db #0x11	; 17
	.db #0x11	; 17
	.db #0x11	; 17
	.db #0x11	; 17
	.db #0x11	; 17
	.db #0x11	; 17
	.db #0x11	; 17
	.db #0x11	; 17
	.db #0x11	; 17
	.db #0x11	; 17
	.db #0x11	; 17
	.db #0x11	; 17
	.db #0x11	; 17
	.db #0x11	; 17
	.db #0x11	; 17
	.db #0x11	; 17
	.db #0x11	; 17
	.db #0x11	; 17
	.db #0x11	; 17
	.db #0x11	; 17
	.db #0x11	; 17
	.db #0x11	; 17
	.db #0x11	; 17
	.db #0x11	; 17
	.db #0x11	; 17
	.db #0x11	; 17
	.db #0x11	; 17
	.db #0x11	; 17
	.db #0x11	; 17
	.db #0x11	; 17
	.db #0x11	; 17
	.db #0x11	; 17
	.db #0x11	; 17
	.db #0x11	; 17
	.db #0x11	; 17
	.db #0x11	; 17
	.db #0x11	; 17
	.db #0x11	; 17
	.db #0x11	; 17
	.db #0x11	; 17
	.db #0x11	; 17
	.db #0x11	; 17
	.db #0x11	; 17
	.db #0x11	; 17
	.db #0x11	; 17
	.db #0x11	; 17
	.db #0x11	; 17
	.db #0x11	; 17
	.db #0x11	; 17
	.db #0x11	; 17
	.db #0x11	; 17
	.db #0x11	; 17
	.db #0x11	; 17
	.db #0x11	; 17
	.db #0x11	; 17
	.db #0x11	; 17
	.db #0x11	; 17
	.db #0x11	; 17
	.db #0x11	; 17
	.db #0x11	; 17
	.db #0x11	; 17
	.db #0x11	; 17
	.db #0x11	; 17
	.db #0x11	; 17
	.db #0x11	; 17
	.db #0x11	; 17
	.db #0x11	; 17
	.db #0x11	; 17
	.db #0x11	; 17
	.db #0x11	; 17
	.db #0x11	; 17
	.db #0x11	; 17
	.db #0x11	; 17
	.db #0x11	; 17
	.db #0x11	; 17
	.db #0x11	; 17
	.db #0x11	; 17
	.db #0x11	; 17
	.db #0x11	; 17
	.db #0x11	; 17
	.db #0x11	; 17
	.db #0x11	; 17
	.db #0x11	; 17
	.db #0x11	; 17
	.db #0x11	; 17
	.db #0x11	; 17
	.db #0x11	; 17
	.db #0x11	; 17
	.db #0x11	; 17
	.db #0x11	; 17
	.db #0x11	; 17
	.db #0x11	; 17
	.db #0x11	; 17
	.db #0x11	; 17
	.db #0x11	; 17
	.db #0x11	; 17
	.db #0x11	; 17
	.db #0x11	; 17
	.db #0x11	; 17
	.db #0x11	; 17
	.db #0x11	; 17
	.db #0x11	; 17
	.db #0x11	; 17
	.db #0x11	; 17
	.db #0x11	; 17
	.db #0x11	; 17
	.db #0x11	; 17
	.db #0x11	; 17
	.db #0x11	; 17
	.db #0x11	; 17
	.db #0x11	; 17
	.db #0x11	; 17
	.db #0x11	; 17
	.db #0x11	; 17
	.db #0x11	; 17
	.db #0x11	; 17
	.db #0x11	; 17
	.db #0x11	; 17
	.db #0x11	; 17
	.db #0x11	; 17
	.db #0x11	; 17
	.db #0x11	; 17
	.db #0x11	; 17
	.db #0x11	; 17
	.db #0x11	; 17
	.db #0x11	; 17
	.db #0x11	; 17
	.db #0x11	; 17
	.db #0x11	; 17
	.db #0x11	; 17
	.db #0x11	; 17
	.db #0x11	; 17
	.db #0x11	; 17
	.db #0x11	; 17
	.db #0x11	; 17
	.db #0x11	; 17
	.db #0x11	; 17
	.db #0x11	; 17
	.db #0x11	; 17
	.db #0x11	; 17
	.db #0x11	; 17
	.db #0x11	; 17
	.db #0x11	; 17
	.db #0x11	; 17
	.db #0x11	; 17
	.db #0x11	; 17
	.db #0x11	; 17
	.db #0x11	; 17
	.db #0x11	; 17
	.db #0x11	; 17
	.db #0x11	; 17
	.db #0x11	; 17
	.db #0x11	; 17
	.db #0x11	; 17
	.db #0x11	; 17
	.db #0x11	; 17
	.db #0x11	; 17
	.db #0x11	; 17
	.db #0x11	; 17
	.db #0x11	; 17
	.db #0x11	; 17
	.db #0x11	; 17
	.db #0x11	; 17
	.db #0x11	; 17
	.db #0x11	; 17
	.db #0x11	; 17
	.db #0x11	; 17
	.db #0x11	; 17
	.db #0x11	; 17
	.db #0x11	; 17
	.db #0x11	; 17
	.db #0x11	; 17
	.db #0x11	; 17
	.db #0x11	; 17
	.db #0x11	; 17
	.db #0x11	; 17
	.db #0x11	; 17
	.db #0x11	; 17
	.db #0x11	; 17
	.db #0x11	; 17
	.db #0x11	; 17
	.db #0x11	; 17
	.db #0x11	; 17
	.db #0x11	; 17
	.db #0x11	; 17
	.db #0x11	; 17
	.db #0x11	; 17
	.db #0x11	; 17
	.db #0x11	; 17
	.db #0x11	; 17
	.db #0x11	; 17
	.db #0x11	; 17
	.db #0x11	; 17
	.db #0x11	; 17
	.db #0x11	; 17
	.db #0x11	; 17
	.db #0x11	; 17
	.db #0x11	; 17
	.db #0x11	; 17
	.db #0x11	; 17
	.db #0x11	; 17
	.db #0x11	; 17
	.db #0x11	; 17
	.db #0x11	; 17
	.db #0x11	; 17
	.db #0x11	; 17
	.db #0x11	; 17
	.db #0x11	; 17
	.db #0x11	; 17
	.db #0x11	; 17
	.db #0x11	; 17
	.db #0x11	; 17
	.db #0x11	; 17
	.db #0x11	; 17
	.db #0x11	; 17
	.db #0x11	; 17
	.db #0x11	; 17
	.db #0x11	; 17
	.db #0x11	; 17
	.db #0x11	; 17
	.db #0x11	; 17
	.db #0x11	; 17
	.db #0x11	; 17
	.db #0x11	; 17
	.db #0x11	; 17
Fmain$__str_0$0_0$0 == .
___str_0:
	.ascii "MUSIC : ALIENALL"
	.db 0x00
Fmain$__str_1$0_0$0 == .
___str_1:
	.ascii "PRESS ESC TO STOP"
	.db 0x00
Fmain$__str_2$0_0$0 == .
___str_2:
	.ascii "SORRY, CAN'T STOP PLAYING MUSIC"
	.db 0x00
	.area _CODE
	.area _INITIALIZER
	.area _CABS (ABS)
