;--------------------------------------------------------
; File Created by SDCC : free open source ANSI-C Compiler
; Version 4.0.0 #11528 (Linux)
;--------------------------------------------------------
	.module main
	.optsdcc -mz80
	
;--------------------------------------------------------
; Public variables in this module
;--------------------------------------------------------
	.globl _main
	.globl _UBOX_FATAL
	.globl _HALT
	.globl _put_text
	.globl _ubox_wait
	.globl _ubox_init_isr
	.globl _ubox_fill_screen
	.globl _ubox_put_tile
	.globl _ubox_set_tiles_colors
	.globl _ubox_set_tiles
	.globl _ubox_set_colors
	.globl _ubox_disable_screen
	.globl _ubox_enable_screen
	.globl _ubox_set_mode
	.globl _strlen
	.globl _toupper
	.globl _sprintf
	.globl _malloc
	.globl _tiles_colors
	.globl _tiles
;--------------------------------------------------------
; special function registers
;--------------------------------------------------------
;--------------------------------------------------------
; ram data
;--------------------------------------------------------
	.area _DATA
;--------------------------------------------------------
; ram data
;--------------------------------------------------------
	.area _INITIALIZED
;--------------------------------------------------------
; absolute external ram data
;--------------------------------------------------------
	.area _DABS (ABS)
;--------------------------------------------------------
; global & static initialisations
;--------------------------------------------------------
	.area _HOME
	.area _GSINIT
	.area _GSFINAL
	.area _GSINIT
;--------------------------------------------------------
; Home
;--------------------------------------------------------
	.area _HOME
	.area _HOME
;--------------------------------------------------------
; code
;--------------------------------------------------------
	.area _CODE
	G$put_text$0$0	= .
	.globl	G$put_text$0$0
	C$main.c$15$0_0$105	= .
	.globl	C$main.c$15$0_0$105
;main.c:15: void put_text(uint8_t x, uint8_t y, const uint8_t *text)
;	---------------------------------
; Function put_text
; ---------------------------------
_put_text::
	C$main.c$17$1_0$105	= .
	.globl	C$main.c$17$1_0$105
;main.c:17: while (*text)
	ld	iy, #4
	add	iy, sp
	ld	c, 0 (iy)
	ld	b, 1 (iy)
	dec	iy
	dec	iy
	ld	e, 0 (iy)
00101$:
	ld	a, (bc)
	or	a, a
	ret	Z
	C$main.c$18$1_0$105	= .
	.globl	C$main.c$18$1_0$105
;main.c:18: ubox_put_tile(x++, y, *text++ + 128 - 31);
	inc	bc
	add	a, #0x61
	ld	h, a
	ld	d, e
	inc	e
	ld	iy, #2
	add	iy, sp
	ld	0 (iy), e
	push	bc
	push	de
	push	hl
	inc	sp
	inc	iy
	ld	a, 0 (iy)
	push	af
	inc	sp
	push	de
	inc	sp
	call	_ubox_put_tile
	pop	af
	inc	sp
	pop	de
	pop	bc
	C$main.c$19$1_0$105	= .
	.globl	C$main.c$19$1_0$105
;main.c:19: }
	C$main.c$19$1_0$105	= .
	.globl	C$main.c$19$1_0$105
	XG$put_text$0$0	= .
	.globl	XG$put_text$0$0
	jr	00101$
G$tiles$0_0$0 == .
_tiles:
	.db #0x00	; 0
	.db #0x00	; 0
	.db #0x00	; 0
	.db #0x00	; 0
	.db #0x00	; 0
	.db #0x00	; 0
	.db #0x00	; 0
	.db #0x00	; 0
	.db #0x00	; 0
	.db #0x00	; 0
	.db #0x00	; 0
	.db #0x00	; 0
	.db #0x00	; 0
	.db #0x00	; 0
	.db #0x00	; 0
	.db #0x00	; 0
	.db #0x00	; 0
	.db #0x00	; 0
	.db #0x00	; 0
	.db #0x00	; 0
	.db #0x00	; 0
	.db #0x00	; 0
	.db #0x00	; 0
	.db #0x00	; 0
	.db #0x00	; 0
	.db #0x00	; 0
	.db #0x00	; 0
	.db #0x00	; 0
	.db #0x00	; 0
	.db #0x00	; 0
	.db #0x00	; 0
	.db #0x00	; 0
	.db #0x00	; 0
	.db #0x00	; 0
	.db #0x00	; 0
	.db #0x00	; 0
	.db #0x00	; 0
	.db #0x00	; 0
	.db #0x00	; 0
	.db #0x00	; 0
	.db #0xaa	; 170
	.db #0xd5	; 213
	.db #0x00	; 0
	.db #0x00	; 0
	.db #0xd5	; 213
	.db #0xaa	; 170
	.db #0x00	; 0
	.db #0x00	; 0
	.db #0xaa	; 170
	.db #0x56	; 86	'V'
	.db #0xfe	; 254
	.db #0xfe	; 254
	.db #0x56	; 86	'V'
	.db #0xaa	; 170
	.db #0x00	; 0
	.db #0x00	; 0
	.db #0x24	; 36
	.db #0x48	; 72	'H'
	.db #0x90	; 144
	.db #0x20	; 32
	.db #0x40	; 64
	.db #0x80	; 128
	.db #0x00	; 0
	.db #0x00	; 0
	.db #0x01	; 1
	.db #0x03	; 3
	.db #0x05	; 5
	.db #0x09	; 9
	.db #0x13	; 19
	.db #0x25	; 37
	.db #0x49	; 73	'I'
	.db #0x00	; 0
	.db #0x20	; 32
	.db #0x10	; 16
	.db #0x20	; 32
	.db #0x10	; 16
	.db #0x20	; 32
	.db #0x10	; 16
	.db #0x00	; 0
	.db #0x00	; 0
	.db #0x11	; 17
	.db #0x09	; 9
	.db #0x11	; 17
	.db #0x09	; 9
	.db #0x11	; 17
	.db #0x09	; 9
	.db #0x00	; 0
	.db #0x00	; 0
	.db #0x00	; 0
	.db #0x00	; 0
	.db #0x00	; 0
	.db #0x00	; 0
	.db #0x00	; 0
	.db #0x00	; 0
	.db #0x00	; 0
	.db #0x00	; 0
	.db #0x00	; 0
	.db #0x55	; 85	'U'
	.db #0x00	; 0
	.db #0x00	; 0
	.db #0x00	; 0
	.db #0x00	; 0
	.db #0x00	; 0
	.db #0x00	; 0
	.db #0x00	; 0
	.db #0x55	; 85	'U'
	.db #0x00	; 0
	.db #0x7f	; 127
	.db #0x00	; 0
	.db #0x7f	; 127
	.db #0x00	; 0
	.db #0x00	; 0
	.db #0x7f	; 127
	.db #0x00	; 0
	.db #0x7f	; 127
	.db #0x00	; 0
	.db #0x7f	; 127
	.db #0x00	; 0
	.db #0x7f	; 127
	.db #0x00	; 0
	.db #0xfd	; 253
	.db #0x00	; 0
	.db #0xfd	; 253
	.db #0x00	; 0
	.db #0xfd	; 253
	.db #0x00	; 0
	.db #0xfd	; 253
	.db #0x00	; 0
	.db #0x00	; 0
	.db #0x00	; 0
	.db #0x00	; 0
	.db #0x00	; 0
	.db #0x00	; 0
	.db #0x00	; 0
	.db #0x00	; 0
	.db #0x00	; 0
	.db #0x00	; 0
	.db #0x00	; 0
	.db #0x00	; 0
	.db #0x00	; 0
	.db #0x00	; 0
	.db #0x00	; 0
	.db #0x00	; 0
	.db #0x00	; 0
	.db #0x00	; 0
	.db #0x00	; 0
	.db #0x00	; 0
	.db #0x00	; 0
	.db #0x00	; 0
	.db #0x00	; 0
	.db #0x00	; 0
	.db #0x00	; 0
	.db #0x00	; 0
	.db #0x00	; 0
	.db #0x00	; 0
	.db #0x00	; 0
	.db #0x00	; 0
	.db #0x00	; 0
	.db #0x00	; 0
	.db #0x00	; 0
	.db #0x00	; 0
	.db #0x00	; 0
	.db #0x00	; 0
	.db #0x00	; 0
	.db #0x00	; 0
	.db #0x00	; 0
	.db #0x00	; 0
	.db #0x00	; 0
	.db #0x00	; 0
	.db #0x00	; 0
	.db #0x00	; 0
	.db #0x00	; 0
	.db #0x00	; 0
	.db #0x00	; 0
	.db #0x00	; 0
	.db #0x00	; 0
	.db #0x00	; 0
	.db #0x00	; 0
	.db #0x00	; 0
	.db #0x00	; 0
	.db #0x00	; 0
	.db #0x00	; 0
	.db #0x00	; 0
	.db #0x00	; 0
	.db #0x00	; 0
	.db #0x00	; 0
	.db #0x00	; 0
	.db #0x00	; 0
	.db #0x00	; 0
	.db #0x00	; 0
	.db #0x00	; 0
	.db #0x00	; 0
	.db #0x00	; 0
	.db #0x00	; 0
	.db #0x00	; 0
	.db #0x00	; 0
	.db #0x00	; 0
	.db #0x00	; 0
	.db #0x00	; 0
	.db #0x00	; 0
	.db #0x00	; 0
	.db #0x00	; 0
	.db #0x00	; 0
	.db #0x00	; 0
	.db #0x00	; 0
	.db #0x00	; 0
	.db #0x00	; 0
	.db #0x00	; 0
	.db #0x00	; 0
	.db #0x00	; 0
	.db #0x00	; 0
	.db #0x00	; 0
	.db #0x00	; 0
	.db #0x00	; 0
	.db #0x00	; 0
	.db #0x00	; 0
	.db #0x00	; 0
	.db #0x00	; 0
	.db #0x00	; 0
	.db #0x00	; 0
	.db #0x00	; 0
	.db #0x00	; 0
	.db #0x00	; 0
	.db #0x00	; 0
	.db #0x00	; 0
	.db #0x00	; 0
	.db #0x00	; 0
	.db #0x00	; 0
	.db #0x00	; 0
	.db #0x00	; 0
	.db #0x00	; 0
	.db #0x00	; 0
	.db #0x00	; 0
	.db #0x00	; 0
	.db #0x00	; 0
	.db #0x00	; 0
	.db #0x00	; 0
	.db #0x00	; 0
	.db #0x00	; 0
	.db #0x00	; 0
	.db #0x00	; 0
	.db #0x00	; 0
	.db #0x00	; 0
	.db #0x00	; 0
	.db #0x00	; 0
	.db #0x00	; 0
	.db #0x00	; 0
	.db #0x00	; 0
	.db #0x00	; 0
	.db #0x00	; 0
	.db #0x00	; 0
	.db #0x00	; 0
	.db #0x00	; 0
	.db #0x00	; 0
	.db #0x00	; 0
	.db #0x00	; 0
	.db #0x00	; 0
	.db #0x00	; 0
	.db #0x00	; 0
	.db #0x01	; 1
	.db #0x07	; 7
	.db #0x0f	; 15
	.db #0x1f	; 31
	.db #0x1e	; 30
	.db #0x00	; 0
	.db #0x00	; 0
	.db #0x00	; 0
	.db #0xf8	; 248
	.db #0xfe	; 254
	.db #0x00	; 0
	.db #0x0f	; 15
	.db #0x07	; 7
	.db #0x00	; 0
	.db #0x00	; 0
	.db #0x00	; 0
	.db #0x0f	; 15
	.db #0x0f	; 15
	.db #0x0f	; 15
	.db #0x0f	; 15
	.db #0x8e	; 142
	.db #0x00	; 0
	.db #0x00	; 0
	.db #0x00	; 0
	.db #0xfc	; 252
	.db #0x00	; 0
	.db #0x00	; 0
	.db #0x07	; 7
	.db #0x07	; 7
	.db #0x00	; 0
	.db #0x00	; 0
	.db #0x00	; 0
	.db #0x0f	; 15
	.db #0x0f	; 15
	.db #0x0f	; 15
	.db #0x8f	; 143
	.db #0x8e	; 142
	.db #0x00	; 0
	.db #0x00	; 0
	.db #0x00	; 0
	.db #0x00	; 0
	.db #0x00	; 0
	.db #0x00	; 0
	.db #0x00	; 0
	.db #0x00	; 0
	.db #0x00	; 0
	.db #0x00	; 0
	.db #0x00	; 0
	.db #0x3f	; 63
	.db #0x3f	; 63
	.db #0x3f	; 63
	.db #0x3c	; 60
	.db #0x38	; 56	'8'
	.db #0x00	; 0
	.db #0x00	; 0
	.db #0x00	; 0
	.db #0xfc	; 252
	.db #0xfc	; 252
	.db #0xfc	; 252
	.db #0x00	; 0
	.db #0x00	; 0
	.db #0x00	; 0
	.db #0x00	; 0
	.db #0x00	; 0
	.db #0xf0	; 240
	.db #0xf8	; 248
	.db #0xf8	; 248
	.db #0xfc	; 252
	.db #0xfc	; 252
	.db #0x00	; 0
	.db #0x00	; 0
	.db #0x00	; 0
	.db #0x1e	; 30
	.db #0x1e	; 30
	.db #0x1e	; 30
	.db #0x1c	; 28
	.db #0x1c	; 28
	.db #0x00	; 0
	.db #0x00	; 0
	.db #0x00	; 0
	.db #0x00	; 0
	.db #0x00	; 0
	.db #0x00	; 0
	.db #0x00	; 0
	.db #0x00	; 0
	.db #0x00	; 0
	.db #0x00	; 0
	.db #0x00	; 0
	.db #0x00	; 0
	.db #0x00	; 0
	.db #0x00	; 0
	.db #0x00	; 0
	.db #0x00	; 0
	.db #0x00	; 0
	.db #0x00	; 0
	.db #0x00	; 0
	.db #0x00	; 0
	.db #0x00	; 0
	.db #0x00	; 0
	.db #0x00	; 0
	.db #0x00	; 0
	.db #0x00	; 0
	.db #0x00	; 0
	.db #0x00	; 0
	.db #0x00	; 0
	.db #0x00	; 0
	.db #0x00	; 0
	.db #0x00	; 0
	.db #0x00	; 0
	.db #0x00	; 0
	.db #0x00	; 0
	.db #0x00	; 0
	.db #0x00	; 0
	.db #0x00	; 0
	.db #0x00	; 0
	.db #0x00	; 0
	.db #0x00	; 0
	.db #0x00	; 0
	.db #0x00	; 0
	.db #0x00	; 0
	.db #0x00	; 0
	.db #0x00	; 0
	.db #0x00	; 0
	.db #0x00	; 0
	.db #0x00	; 0
	.db #0x00	; 0
	.db #0x00	; 0
	.db #0x00	; 0
	.db #0x00	; 0
	.db #0x00	; 0
	.db #0x00	; 0
	.db #0x00	; 0
	.db #0x00	; 0
	.db #0x00	; 0
	.db #0x00	; 0
	.db #0x00	; 0
	.db #0x00	; 0
	.db #0x00	; 0
	.db #0x00	; 0
	.db #0x00	; 0
	.db #0x00	; 0
	.db #0x00	; 0
	.db #0x00	; 0
	.db #0x00	; 0
	.db #0x00	; 0
	.db #0x00	; 0
	.db #0x00	; 0
	.db #0x00	; 0
	.db #0x00	; 0
	.db #0x00	; 0
	.db #0x00	; 0
	.db #0x00	; 0
	.db #0x00	; 0
	.db #0x00	; 0
	.db #0x00	; 0
	.db #0x00	; 0
	.db #0x00	; 0
	.db #0x00	; 0
	.db #0x00	; 0
	.db #0x00	; 0
	.db #0x00	; 0
	.db #0x00	; 0
	.db #0x00	; 0
	.db #0x00	; 0
	.db #0x00	; 0
	.db #0x00	; 0
	.db #0x00	; 0
	.db #0x00	; 0
	.db #0x00	; 0
	.db #0x00	; 0
	.db #0x00	; 0
	.db #0x00	; 0
	.db #0x00	; 0
	.db #0x00	; 0
	.db #0x00	; 0
	.db #0x00	; 0
	.db #0x00	; 0
	.db #0x00	; 0
	.db #0x00	; 0
	.db #0x00	; 0
	.db #0x00	; 0
	.db #0x00	; 0
	.db #0x00	; 0
	.db #0x00	; 0
	.db #0x00	; 0
	.db #0x00	; 0
	.db #0x00	; 0
	.db #0x00	; 0
	.db #0x00	; 0
	.db #0x00	; 0
	.db #0x00	; 0
	.db #0x00	; 0
	.db #0x00	; 0
	.db #0x00	; 0
	.db #0x00	; 0
	.db #0x00	; 0
	.db #0x00	; 0
	.db #0x00	; 0
	.db #0x00	; 0
	.db #0x00	; 0
	.db #0x00	; 0
	.db #0x00	; 0
	.db #0x00	; 0
	.db #0x00	; 0
	.db #0x00	; 0
	.db #0x00	; 0
	.db #0x00	; 0
	.db #0x00	; 0
	.db #0x00	; 0
	.db #0x00	; 0
	.db #0x00	; 0
	.db #0x00	; 0
	.db #0x00	; 0
	.db #0x00	; 0
	.db #0x00	; 0
	.db #0x00	; 0
	.db #0x00	; 0
	.db #0x00	; 0
	.db #0x00	; 0
	.db #0x00	; 0
	.db #0x00	; 0
	.db #0x00	; 0
	.db #0x00	; 0
	.db #0x00	; 0
	.db #0x00	; 0
	.db #0x00	; 0
	.db #0x00	; 0
	.db #0x00	; 0
	.db #0x00	; 0
	.db #0x00	; 0
	.db #0x00	; 0
	.db #0x00	; 0
	.db #0x00	; 0
	.db #0x00	; 0
	.db #0x00	; 0
	.db #0x00	; 0
	.db #0x00	; 0
	.db #0x00	; 0
	.db #0x00	; 0
	.db #0x00	; 0
	.db #0x00	; 0
	.db #0x00	; 0
	.db #0x00	; 0
	.db #0x00	; 0
	.db #0x00	; 0
	.db #0x00	; 0
	.db #0x00	; 0
	.db #0x00	; 0
	.db #0x00	; 0
	.db #0x00	; 0
	.db #0x00	; 0
	.db #0x00	; 0
	.db #0x00	; 0
	.db #0x3c	; 60
	.db #0x3c	; 60
	.db #0x3c	; 60
	.db #0x78	; 120	'x'
	.db #0x78	; 120	'x'
	.db #0x78	; 120	'x'
	.db #0x78	; 120	'x'
	.db #0x78	; 120	'x'
	.db #0x07	; 7
	.db #0x00	; 0
	.db #0x00	; 0
	.db #0x7f	; 127
	.db #0x7f	; 127
	.db #0x7f	; 127
	.db #0x0f	; 15
	.db #0x0e	; 14
	.db #0x9e	; 158
	.db #0x1e	; 30
	.db #0x1e	; 30
	.db #0x1f	; 31
	.db #0x1f	; 31
	.db #0x1f	; 31
	.db #0x3c	; 60
	.db #0x3c	; 60
	.db #0x07	; 7
	.db #0x07	; 7
	.db #0x0f	; 15
	.db #0xfe	; 254
	.db #0xfc	; 252
	.db #0xf8	; 248
	.db #0x78	; 120	'x'
	.db #0x3c	; 60
	.db #0x9e	; 158
	.db #0x9e	; 158
	.db #0x1f	; 31
	.db #0x1f	; 31
	.db #0x1f	; 31
	.db #0x1c	; 28
	.db #0x3c	; 60
	.db #0x3c	; 60
	.db #0x00	; 0
	.db #0x00	; 0
	.db #0xfc	; 252
	.db #0xfc	; 252
	.db #0xfc	; 252
	.db #0x00	; 0
	.db #0x00	; 0
	.db #0x00	; 0
	.db #0x78	; 120	'x'
	.db #0x78	; 120	'x'
	.db #0x7f	; 127
	.db #0x7f	; 127
	.db #0x7f	; 127
	.db #0x70	; 112	'p'
	.db #0xf0	; 240
	.db #0xf0	; 240
	.db #0x01	; 1
	.db #0x01	; 1
	.db #0xf1	; 241
	.db #0xf1	; 241
	.db #0xf1	; 241
	.db #0x01	; 1
	.db #0x03	; 3
	.db #0x03	; 3
	.db #0xfc	; 252
	.db #0xfe	; 254
	.db #0xee	; 238
	.db #0xef	; 239
	.db #0xe7	; 231
	.db #0xc7	; 199
	.db #0xc7	; 199
	.db #0xc3	; 195
	.db #0x3c	; 60
	.db #0x3c	; 60
	.db #0x3c	; 60
	.db #0x3c	; 60
	.db #0x38	; 56	'8'
	.db #0xf8	; 248
	.db #0xf8	; 248
	.db #0xf8	; 248
	.db #0x00	; 0
	.db #0x00	; 0
	.db #0x00	; 0
	.db #0x00	; 0
	.db #0x00	; 0
	.db #0x00	; 0
	.db #0x00	; 0
	.db #0x00	; 0
	.db #0x00	; 0
	.db #0x00	; 0
	.db #0x00	; 0
	.db #0x00	; 0
	.db #0x00	; 0
	.db #0x00	; 0
	.db #0x00	; 0
	.db #0x00	; 0
	.db #0x00	; 0
	.db #0x00	; 0
	.db #0x00	; 0
	.db #0x00	; 0
	.db #0x00	; 0
	.db #0x00	; 0
	.db #0x00	; 0
	.db #0x00	; 0
	.db #0x00	; 0
	.db #0x00	; 0
	.db #0x00	; 0
	.db #0x00	; 0
	.db #0x00	; 0
	.db #0x00	; 0
	.db #0x00	; 0
	.db #0x00	; 0
	.db #0x00	; 0
	.db #0x00	; 0
	.db #0x00	; 0
	.db #0x00	; 0
	.db #0x00	; 0
	.db #0x00	; 0
	.db #0x00	; 0
	.db #0x00	; 0
	.db #0x00	; 0
	.db #0x00	; 0
	.db #0x00	; 0
	.db #0x00	; 0
	.db #0x00	; 0
	.db #0x00	; 0
	.db #0x00	; 0
	.db #0x00	; 0
	.db #0x00	; 0
	.db #0x00	; 0
	.db #0x00	; 0
	.db #0x00	; 0
	.db #0x00	; 0
	.db #0x00	; 0
	.db #0x00	; 0
	.db #0x00	; 0
	.db #0x00	; 0
	.db #0x00	; 0
	.db #0x00	; 0
	.db #0x00	; 0
	.db #0x00	; 0
	.db #0x00	; 0
	.db #0x00	; 0
	.db #0x00	; 0
	.db #0x00	; 0
	.db #0x00	; 0
	.db #0x00	; 0
	.db #0x00	; 0
	.db #0x00	; 0
	.db #0x00	; 0
	.db #0x00	; 0
	.db #0x00	; 0
	.db #0x00	; 0
	.db #0x00	; 0
	.db #0x00	; 0
	.db #0x00	; 0
	.db #0x00	; 0
	.db #0x00	; 0
	.db #0x00	; 0
	.db #0x00	; 0
	.db #0x00	; 0
	.db #0x00	; 0
	.db #0x00	; 0
	.db #0x00	; 0
	.db #0x00	; 0
	.db #0x00	; 0
	.db #0x00	; 0
	.db #0x00	; 0
	.db #0x00	; 0
	.db #0x00	; 0
	.db #0x00	; 0
	.db #0x00	; 0
	.db #0x00	; 0
	.db #0x00	; 0
	.db #0x00	; 0
	.db #0x00	; 0
	.db #0x00	; 0
	.db #0x00	; 0
	.db #0x00	; 0
	.db #0x00	; 0
	.db #0x00	; 0
	.db #0x00	; 0
	.db #0x00	; 0
	.db #0x00	; 0
	.db #0x00	; 0
	.db #0x00	; 0
	.db #0x00	; 0
	.db #0x00	; 0
	.db #0x00	; 0
	.db #0x00	; 0
	.db #0x00	; 0
	.db #0x00	; 0
	.db #0x00	; 0
	.db #0x00	; 0
	.db #0x00	; 0
	.db #0x00	; 0
	.db #0x00	; 0
	.db #0x00	; 0
	.db #0x00	; 0
	.db #0x00	; 0
	.db #0x00	; 0
	.db #0x00	; 0
	.db #0x00	; 0
	.db #0x00	; 0
	.db #0x00	; 0
	.db #0x00	; 0
	.db #0x00	; 0
	.db #0x00	; 0
	.db #0x00	; 0
	.db #0x00	; 0
	.db #0x00	; 0
	.db #0x00	; 0
	.db #0x00	; 0
	.db #0x00	; 0
	.db #0x00	; 0
	.db #0x00	; 0
	.db #0x00	; 0
	.db #0x00	; 0
	.db #0x00	; 0
	.db #0x00	; 0
	.db #0x00	; 0
	.db #0x00	; 0
	.db #0x00	; 0
	.db #0x00	; 0
	.db #0x00	; 0
	.db #0x00	; 0
	.db #0x00	; 0
	.db #0x00	; 0
	.db #0x00	; 0
	.db #0x00	; 0
	.db #0x00	; 0
	.db #0x00	; 0
	.db #0x00	; 0
	.db #0x00	; 0
	.db #0x00	; 0
	.db #0x00	; 0
	.db #0x00	; 0
	.db #0x00	; 0
	.db #0x00	; 0
	.db #0x00	; 0
	.db #0x00	; 0
	.db #0x00	; 0
	.db #0x00	; 0
	.db #0x00	; 0
	.db #0x00	; 0
	.db #0x00	; 0
	.db #0x00	; 0
	.db #0x00	; 0
	.db #0x00	; 0
	.db #0x00	; 0
	.db #0x00	; 0
	.db #0x00	; 0
	.db #0x00	; 0
	.db #0x00	; 0
	.db #0x00	; 0
	.db #0x00	; 0
	.db #0xc7	; 199
	.db #0xc3	; 195
	.db #0xe0	; 224
	.db #0xe0	; 224
	.db #0xf8	; 248
	.db #0x00	; 0
	.db #0x00	; 0
	.db #0x00	; 0
	.db #0xe1	; 225
	.db #0xe1	; 225
	.db #0x01	; 1
	.db #0x03	; 3
	.db #0x1f	; 31
	.db #0x00	; 0
	.db #0x00	; 0
	.db #0x00	; 0
	.db #0xc3	; 195
	.db #0xc3	; 195
	.db #0xc7	; 199
	.db #0xc7	; 199
	.db #0x87	; 135
	.db #0x00	; 0
	.db #0x00	; 0
	.db #0x00	; 0
	.db #0xc3	; 195
	.db #0xc3	; 195
	.db #0xe1	; 225
	.db #0xe1	; 225
	.db #0xe1	; 225
	.db #0x00	; 0
	.db #0x00	; 0
	.db #0x00	; 0
	.db #0xc3	; 195
	.db #0xc3	; 195
	.db #0xc0	; 192
	.db #0xc0	; 192
	.db #0x80	; 128
	.db #0x00	; 0
	.db #0x00	; 0
	.db #0x00	; 0
	.db #0x00	; 0
	.db #0x00	; 0
	.db #0x03	; 3
	.db #0x03	; 3
	.db #0x06	; 6
	.db #0x00	; 0
	.db #0x00	; 0
	.db #0x00	; 0
	.db #0x0f	; 15
	.db #0x0f	; 15
	.db #0x00	; 0
	.db #0x00	; 0
	.db #0x00	; 0
	.db #0x00	; 0
	.db #0x00	; 0
	.db #0x00	; 0
	.db #0xfc	; 252
	.db #0xfc	; 252
	.db #0x0c	; 12
	.db #0x0c	; 12
	.db #0x18	; 24
	.db #0x00	; 0
	.db #0x00	; 0
	.db #0x00	; 0
	.db #0x3c	; 60
	.db #0x3e	; 62
	.db #0x7e	; 126
	.db #0x7f	; 127
	.db #0x7f	; 127
	.db #0x00	; 0
	.db #0x00	; 0
	.db #0x00	; 0
	.db #0x07	; 7
	.db #0x07	; 7
	.db #0x0f	; 15
	.db #0x0f	; 15
	.db #0x0f	; 15
	.db #0x00	; 0
	.db #0x00	; 0
	.db #0x00	; 0
	.db #0x00	; 0
	.db #0x00	; 0
	.db #0x00	; 0
	.db #0x00	; 0
	.db #0x00	; 0
	.db #0x00	; 0
	.db #0x00	; 0
	.db #0x00	; 0
	.db #0x00	; 0
	.db #0x00	; 0
	.db #0x00	; 0
	.db #0x00	; 0
	.db #0x00	; 0
	.db #0x00	; 0
	.db #0x00	; 0
	.db #0x00	; 0
	.db #0x00	; 0
	.db #0x00	; 0
	.db #0x00	; 0
	.db #0x00	; 0
	.db #0x00	; 0
	.db #0x00	; 0
	.db #0x00	; 0
	.db #0x00	; 0
	.db #0x00	; 0
	.db #0x00	; 0
	.db #0x00	; 0
	.db #0x00	; 0
	.db #0x00	; 0
	.db #0x00	; 0
	.db #0x00	; 0
	.db #0x00	; 0
	.db #0x00	; 0
	.db #0x00	; 0
	.db #0x00	; 0
	.db #0x00	; 0
	.db #0x00	; 0
	.db #0x00	; 0
	.db #0x00	; 0
	.db #0x00	; 0
	.db #0x00	; 0
	.db #0x00	; 0
	.db #0x00	; 0
	.db #0x00	; 0
	.db #0x00	; 0
	.db #0x00	; 0
	.db #0x00	; 0
	.db #0x00	; 0
	.db #0x00	; 0
	.db #0x00	; 0
	.db #0x00	; 0
	.db #0x00	; 0
	.db #0x00	; 0
	.db #0x00	; 0
	.db #0x00	; 0
	.db #0x00	; 0
	.db #0x00	; 0
	.db #0x00	; 0
	.db #0x00	; 0
	.db #0x00	; 0
	.db #0x00	; 0
	.db #0x00	; 0
	.db #0x00	; 0
	.db #0x00	; 0
	.db #0x00	; 0
	.db #0x00	; 0
	.db #0x00	; 0
	.db #0x00	; 0
	.db #0x00	; 0
	.db #0x00	; 0
	.db #0x00	; 0
	.db #0x00	; 0
	.db #0x00	; 0
	.db #0x00	; 0
	.db #0x00	; 0
	.db #0x00	; 0
	.db #0x00	; 0
	.db #0x00	; 0
	.db #0x00	; 0
	.db #0x00	; 0
	.db #0x00	; 0
	.db #0x00	; 0
	.db #0x00	; 0
	.db #0x00	; 0
	.db #0x00	; 0
	.db #0x00	; 0
	.db #0x00	; 0
	.db #0x00	; 0
	.db #0x00	; 0
	.db #0x00	; 0
	.db #0x00	; 0
	.db #0x00	; 0
	.db #0x00	; 0
	.db #0x00	; 0
	.db #0x00	; 0
	.db #0x00	; 0
	.db #0x00	; 0
	.db #0x00	; 0
	.db #0x00	; 0
	.db #0x00	; 0
	.db #0x00	; 0
	.db #0x00	; 0
	.db #0x00	; 0
	.db #0x00	; 0
	.db #0x00	; 0
	.db #0x00	; 0
	.db #0x00	; 0
	.db #0x00	; 0
	.db #0x00	; 0
	.db #0x00	; 0
	.db #0x00	; 0
	.db #0x00	; 0
	.db #0x00	; 0
	.db #0x00	; 0
	.db #0x00	; 0
	.db #0x00	; 0
	.db #0x00	; 0
	.db #0x00	; 0
	.db #0x00	; 0
	.db #0x00	; 0
	.db #0x00	; 0
	.db #0x00	; 0
	.db #0x00	; 0
	.db #0x00	; 0
	.db #0x00	; 0
	.db #0x00	; 0
	.db #0x00	; 0
	.db #0x00	; 0
	.db #0x00	; 0
	.db #0x00	; 0
	.db #0x00	; 0
	.db #0x00	; 0
	.db #0x00	; 0
	.db #0x00	; 0
	.db #0x00	; 0
	.db #0x00	; 0
	.db #0x00	; 0
	.db #0x00	; 0
	.db #0x00	; 0
	.db #0x00	; 0
	.db #0x00	; 0
	.db #0x00	; 0
	.db #0x00	; 0
	.db #0x00	; 0
	.db #0x00	; 0
	.db #0x00	; 0
	.db #0x00	; 0
	.db #0x00	; 0
	.db #0x00	; 0
	.db #0x00	; 0
	.db #0x00	; 0
	.db #0x00	; 0
	.db #0x00	; 0
	.db #0x00	; 0
	.db #0x00	; 0
	.db #0x00	; 0
	.db #0x00	; 0
	.db #0x00	; 0
	.db #0x00	; 0
	.db #0x00	; 0
	.db #0x00	; 0
	.db #0x00	; 0
	.db #0x00	; 0
	.db #0x00	; 0
	.db #0x00	; 0
	.db #0x00	; 0
	.db #0x00	; 0
	.db #0x00	; 0
	.db #0x00	; 0
	.db #0x00	; 0
	.db #0x00	; 0
	.db #0x00	; 0
	.db #0x00	; 0
	.db #0x00	; 0
	.db #0x00	; 0
	.db #0x00	; 0
	.db #0x38	; 56	'8'
	.db #0x44	; 68	'D'
	.db #0x9a	; 154
	.db #0xa2	; 162
	.db #0x9a	; 154
	.db #0x44	; 68	'D'
	.db #0x38	; 56	'8'
	.db #0x00	; 0
	.db #0x00	; 0
	.db #0x00	; 0
	.db #0x00	; 0
	.db #0x00	; 0
	.db #0x00	; 0
	.db #0x00	; 0
	.db #0x00	; 0
	.db #0x00	; 0
	.db #0x18	; 24
	.db #0x3c	; 60
	.db #0x3c	; 60
	.db #0x18	; 24
	.db #0x18	; 24
	.db #0x00	; 0
	.db #0x18	; 24
	.db #0x00	; 0
	.db #0x36	; 54	'6'
	.db #0x36	; 54	'6'
	.db #0x36	; 54	'6'
	.db #0x00	; 0
	.db #0x00	; 0
	.db #0x00	; 0
	.db #0x00	; 0
	.db #0x00	; 0
	.db #0x36	; 54	'6'
	.db #0x36	; 54	'6'
	.db #0x7f	; 127
	.db #0x36	; 54	'6'
	.db #0x7f	; 127
	.db #0x36	; 54	'6'
	.db #0x36	; 54	'6'
	.db #0x00	; 0
	.db #0x18	; 24
	.db #0x3e	; 62
	.db #0x60	; 96
	.db #0x3c	; 60
	.db #0x06	; 6
	.db #0x7c	; 124
	.db #0x18	; 24
	.db #0x00	; 0
	.db #0x60	; 96
	.db #0x66	; 102	'f'
	.db #0x0c	; 12
	.db #0x18	; 24
	.db #0x30	; 48	'0'
	.db #0x66	; 102	'f'
	.db #0x06	; 6
	.db #0x00	; 0
	.db #0x1c	; 28
	.db #0x36	; 54	'6'
	.db #0x1c	; 28
	.db #0x3b	; 59
	.db #0x6e	; 110	'n'
	.db #0x66	; 102	'f'
	.db #0x3b	; 59
	.db #0x00	; 0
	.db #0x1c	; 28
	.db #0x18	; 24
	.db #0x30	; 48	'0'
	.db #0x00	; 0
	.db #0x00	; 0
	.db #0x00	; 0
	.db #0x00	; 0
	.db #0x00	; 0
	.db #0x0c	; 12
	.db #0x18	; 24
	.db #0x30	; 48	'0'
	.db #0x30	; 48	'0'
	.db #0x30	; 48	'0'
	.db #0x18	; 24
	.db #0x0c	; 12
	.db #0x00	; 0
	.db #0x30	; 48	'0'
	.db #0x18	; 24
	.db #0x0c	; 12
	.db #0x0c	; 12
	.db #0x0c	; 12
	.db #0x18	; 24
	.db #0x30	; 48	'0'
	.db #0x00	; 0
	.db #0x00	; 0
	.db #0x66	; 102	'f'
	.db #0x3c	; 60
	.db #0x18	; 24
	.db #0x3c	; 60
	.db #0x66	; 102	'f'
	.db #0x00	; 0
	.db #0x00	; 0
	.db #0x00	; 0
	.db #0x18	; 24
	.db #0x18	; 24
	.db #0x7e	; 126
	.db #0x18	; 24
	.db #0x18	; 24
	.db #0x00	; 0
	.db #0x00	; 0
	.db #0x00	; 0
	.db #0x00	; 0
	.db #0x00	; 0
	.db #0x00	; 0
	.db #0x00	; 0
	.db #0x18	; 24
	.db #0x18	; 24
	.db #0x30	; 48	'0'
	.db #0x00	; 0
	.db #0x00	; 0
	.db #0x00	; 0
	.db #0x7e	; 126
	.db #0x00	; 0
	.db #0x00	; 0
	.db #0x00	; 0
	.db #0x00	; 0
	.db #0x00	; 0
	.db #0x00	; 0
	.db #0x00	; 0
	.db #0x00	; 0
	.db #0x00	; 0
	.db #0x18	; 24
	.db #0x18	; 24
	.db #0x00	; 0
	.db #0x00	; 0
	.db #0x06	; 6
	.db #0x0c	; 12
	.db #0x18	; 24
	.db #0x30	; 48	'0'
	.db #0x60	; 96
	.db #0x00	; 0
	.db #0x00	; 0
	.db #0x3c	; 60
	.db #0x66	; 102	'f'
	.db #0x6e	; 110	'n'
	.db #0x7e	; 126
	.db #0x76	; 118	'v'
	.db #0x66	; 102	'f'
	.db #0x3c	; 60
	.db #0x00	; 0
	.db #0x18	; 24
	.db #0x38	; 56	'8'
	.db #0x18	; 24
	.db #0x18	; 24
	.db #0x18	; 24
	.db #0x18	; 24
	.db #0x7e	; 126
	.db #0x00	; 0
	.db #0x3c	; 60
	.db #0x66	; 102	'f'
	.db #0x06	; 6
	.db #0x1c	; 28
	.db #0x30	; 48	'0'
	.db #0x66	; 102	'f'
	.db #0x7e	; 126
	.db #0x00	; 0
	.db #0x3c	; 60
	.db #0x66	; 102	'f'
	.db #0x06	; 6
	.db #0x1c	; 28
	.db #0x06	; 6
	.db #0x66	; 102	'f'
	.db #0x3c	; 60
	.db #0x00	; 0
	.db #0x0e	; 14
	.db #0x1e	; 30
	.db #0x36	; 54	'6'
	.db #0x66	; 102	'f'
	.db #0x7f	; 127
	.db #0x06	; 6
	.db #0x0f	; 15
	.db #0x00	; 0
	.db #0x7e	; 126
	.db #0x60	; 96
	.db #0x60	; 96
	.db #0x7c	; 124
	.db #0x06	; 6
	.db #0x66	; 102	'f'
	.db #0x3c	; 60
	.db #0x00	; 0
	.db #0x1c	; 28
	.db #0x30	; 48	'0'
	.db #0x60	; 96
	.db #0x7c	; 124
	.db #0x66	; 102	'f'
	.db #0x66	; 102	'f'
	.db #0x3c	; 60
	.db #0x00	; 0
	.db #0x7e	; 126
	.db #0x66	; 102	'f'
	.db #0x06	; 6
	.db #0x0c	; 12
	.db #0x18	; 24
	.db #0x18	; 24
	.db #0x18	; 24
	.db #0x00	; 0
	.db #0x3c	; 60
	.db #0x66	; 102	'f'
	.db #0x66	; 102	'f'
	.db #0x3c	; 60
	.db #0x66	; 102	'f'
	.db #0x66	; 102	'f'
	.db #0x3c	; 60
	.db #0x00	; 0
	.db #0x3c	; 60
	.db #0x66	; 102	'f'
	.db #0x66	; 102	'f'
	.db #0x3e	; 62
	.db #0x06	; 6
	.db #0x0c	; 12
	.db #0x38	; 56	'8'
	.db #0x00	; 0
	.db #0x00	; 0
	.db #0x00	; 0
	.db #0x18	; 24
	.db #0x18	; 24
	.db #0x00	; 0
	.db #0x18	; 24
	.db #0x18	; 24
	.db #0x00	; 0
	.db #0x00	; 0
	.db #0x00	; 0
	.db #0x18	; 24
	.db #0x18	; 24
	.db #0x00	; 0
	.db #0x18	; 24
	.db #0x18	; 24
	.db #0x30	; 48	'0'
	.db #0x0c	; 12
	.db #0x18	; 24
	.db #0x30	; 48	'0'
	.db #0x60	; 96
	.db #0x30	; 48	'0'
	.db #0x18	; 24
	.db #0x0c	; 12
	.db #0x00	; 0
	.db #0x00	; 0
	.db #0x00	; 0
	.db #0x7e	; 126
	.db #0x00	; 0
	.db #0x7e	; 126
	.db #0x00	; 0
	.db #0x00	; 0
	.db #0x00	; 0
	.db #0x30	; 48	'0'
	.db #0x18	; 24
	.db #0x0c	; 12
	.db #0x06	; 6
	.db #0x0c	; 12
	.db #0x18	; 24
	.db #0x30	; 48	'0'
	.db #0x00	; 0
	.db #0x3c	; 60
	.db #0x66	; 102	'f'
	.db #0x06	; 6
	.db #0x0c	; 12
	.db #0x18	; 24
	.db #0x00	; 0
	.db #0x18	; 24
	.db #0x00	; 0
	.db #0x3c	; 60
	.db #0x66	; 102	'f'
	.db #0x6e	; 110	'n'
	.db #0x6a	; 106	'j'
	.db #0x6e	; 110	'n'
	.db #0x60	; 96
	.db #0x3c	; 60
	.db #0x00	; 0
	.db #0x3c	; 60
	.db #0x66	; 102	'f'
	.db #0x66	; 102	'f'
	.db #0x7e	; 126
	.db #0x66	; 102	'f'
	.db #0x66	; 102	'f'
	.db #0x66	; 102	'f'
	.db #0x00	; 0
	.db #0x7c	; 124
	.db #0x66	; 102	'f'
	.db #0x66	; 102	'f'
	.db #0x7c	; 124
	.db #0x66	; 102	'f'
	.db #0x66	; 102	'f'
	.db #0x7c	; 124
	.db #0x00	; 0
	.db #0x3c	; 60
	.db #0x66	; 102	'f'
	.db #0x60	; 96
	.db #0x60	; 96
	.db #0x60	; 96
	.db #0x66	; 102	'f'
	.db #0x3c	; 60
	.db #0x00	; 0
	.db #0x78	; 120	'x'
	.db #0x6c	; 108	'l'
	.db #0x66	; 102	'f'
	.db #0x66	; 102	'f'
	.db #0x66	; 102	'f'
	.db #0x6c	; 108	'l'
	.db #0x78	; 120	'x'
	.db #0x00	; 0
	.db #0x7e	; 126
	.db #0x60	; 96
	.db #0x60	; 96
	.db #0x7c	; 124
	.db #0x60	; 96
	.db #0x60	; 96
	.db #0x7e	; 126
	.db #0x00	; 0
	.db #0x7e	; 126
	.db #0x60	; 96
	.db #0x60	; 96
	.db #0x7c	; 124
	.db #0x60	; 96
	.db #0x60	; 96
	.db #0x60	; 96
	.db #0x00	; 0
	.db #0x3c	; 60
	.db #0x66	; 102	'f'
	.db #0x60	; 96
	.db #0x6e	; 110	'n'
	.db #0x66	; 102	'f'
	.db #0x66	; 102	'f'
	.db #0x3c	; 60
	.db #0x00	; 0
	.db #0x66	; 102	'f'
	.db #0x66	; 102	'f'
	.db #0x66	; 102	'f'
	.db #0x7e	; 126
	.db #0x66	; 102	'f'
	.db #0x66	; 102	'f'
	.db #0x66	; 102	'f'
	.db #0x00	; 0
	.db #0x3c	; 60
	.db #0x18	; 24
	.db #0x18	; 24
	.db #0x18	; 24
	.db #0x18	; 24
	.db #0x18	; 24
	.db #0x3c	; 60
	.db #0x00	; 0
	.db #0x0e	; 14
	.db #0x06	; 6
	.db #0x06	; 6
	.db #0x06	; 6
	.db #0x66	; 102	'f'
	.db #0x66	; 102	'f'
	.db #0x3c	; 60
	.db #0x00	; 0
	.db #0x66	; 102	'f'
	.db #0x66	; 102	'f'
	.db #0x6c	; 108	'l'
	.db #0x78	; 120	'x'
	.db #0x6c	; 108	'l'
	.db #0x66	; 102	'f'
	.db #0x66	; 102	'f'
	.db #0x00	; 0
	.db #0x60	; 96
	.db #0x60	; 96
	.db #0x60	; 96
	.db #0x60	; 96
	.db #0x60	; 96
	.db #0x60	; 96
	.db #0x7e	; 126
	.db #0x00	; 0
	.db #0x63	; 99	'c'
	.db #0x77	; 119	'w'
	.db #0x7f	; 127
	.db #0x7f	; 127
	.db #0x6b	; 107	'k'
	.db #0x63	; 99	'c'
	.db #0x63	; 99	'c'
	.db #0x00	; 0
	.db #0x66	; 102	'f'
	.db #0x76	; 118	'v'
	.db #0x7e	; 126
	.db #0x7e	; 126
	.db #0x6e	; 110	'n'
	.db #0x66	; 102	'f'
	.db #0x66	; 102	'f'
	.db #0x00	; 0
	.db #0x3c	; 60
	.db #0x66	; 102	'f'
	.db #0x66	; 102	'f'
	.db #0x66	; 102	'f'
	.db #0x66	; 102	'f'
	.db #0x66	; 102	'f'
	.db #0x3c	; 60
	.db #0x00	; 0
	.db #0x7c	; 124
	.db #0x66	; 102	'f'
	.db #0x66	; 102	'f'
	.db #0x7c	; 124
	.db #0x60	; 96
	.db #0x60	; 96
	.db #0x60	; 96
	.db #0x00	; 0
	.db #0x3c	; 60
	.db #0x66	; 102	'f'
	.db #0x66	; 102	'f'
	.db #0x66	; 102	'f'
	.db #0x6e	; 110	'n'
	.db #0x3c	; 60
	.db #0x0e	; 14
	.db #0x00	; 0
	.db #0x7c	; 124
	.db #0x66	; 102	'f'
	.db #0x66	; 102	'f'
	.db #0x7c	; 124
	.db #0x6c	; 108	'l'
	.db #0x66	; 102	'f'
	.db #0x66	; 102	'f'
	.db #0x00	; 0
	.db #0x3c	; 60
	.db #0x66	; 102	'f'
	.db #0x60	; 96
	.db #0x3c	; 60
	.db #0x06	; 6
	.db #0x66	; 102	'f'
	.db #0x3c	; 60
	.db #0x00	; 0
	.db #0x7e	; 126
	.db #0x18	; 24
	.db #0x18	; 24
	.db #0x18	; 24
	.db #0x18	; 24
	.db #0x18	; 24
	.db #0x18	; 24
	.db #0x00	; 0
	.db #0x66	; 102	'f'
	.db #0x66	; 102	'f'
	.db #0x66	; 102	'f'
	.db #0x66	; 102	'f'
	.db #0x66	; 102	'f'
	.db #0x66	; 102	'f'
	.db #0x3c	; 60
	.db #0x00	; 0
	.db #0x66	; 102	'f'
	.db #0x66	; 102	'f'
	.db #0x66	; 102	'f'
	.db #0x66	; 102	'f'
	.db #0x66	; 102	'f'
	.db #0x3c	; 60
	.db #0x18	; 24
	.db #0x00	; 0
	.db #0x63	; 99	'c'
	.db #0x63	; 99	'c'
	.db #0x63	; 99	'c'
	.db #0x6b	; 107	'k'
	.db #0x7f	; 127
	.db #0x77	; 119	'w'
	.db #0x63	; 99	'c'
	.db #0x00	; 0
	.db #0x66	; 102	'f'
	.db #0x66	; 102	'f'
	.db #0x3c	; 60
	.db #0x18	; 24
	.db #0x3c	; 60
	.db #0x66	; 102	'f'
	.db #0x66	; 102	'f'
	.db #0x00	; 0
	.db #0x66	; 102	'f'
	.db #0x66	; 102	'f'
	.db #0x66	; 102	'f'
	.db #0x3c	; 60
	.db #0x18	; 24
	.db #0x18	; 24
	.db #0x18	; 24
	.db #0x00	; 0
	.db #0x7e	; 126
	.db #0x06	; 6
	.db #0x0c	; 12
	.db #0x18	; 24
	.db #0x30	; 48	'0'
	.db #0x60	; 96
	.db #0x7e	; 126
	.db #0x00	; 0
	.db #0x3e	; 62
	.db #0x30	; 48	'0'
	.db #0x30	; 48	'0'
	.db #0x30	; 48	'0'
	.db #0x30	; 48	'0'
	.db #0x30	; 48	'0'
	.db #0x3e	; 62
	.db #0x00	; 0
	.db #0x00	; 0
	.db #0x60	; 96
	.db #0x30	; 48	'0'
	.db #0x18	; 24
	.db #0x0c	; 12
	.db #0x06	; 6
	.db #0x00	; 0
	.db #0x00	; 0
	.db #0x3e	; 62
	.db #0x06	; 6
	.db #0x06	; 6
	.db #0x06	; 6
	.db #0x06	; 6
	.db #0x06	; 6
	.db #0x3e	; 62
	.db #0x00	; 0
	.db #0x08	; 8
	.db #0x1c	; 28
	.db #0x36	; 54	'6'
	.db #0x63	; 99	'c'
	.db #0x00	; 0
	.db #0x00	; 0
	.db #0x00	; 0
	.db #0x00	; 0
	.db #0x00	; 0
	.db #0x55	; 85	'U'
	.db #0x18	; 24
	.db #0x7e	; 126
	.db #0x10	; 16
	.db #0x38	; 56	'8'
	.db #0xef	; 239
	.db #0xfc	; 252
	.db #0x00	; 0
	.db #0x6c	; 108	'l'
	.db #0xfe	; 254
	.db #0xfe	; 254
	.db #0x7c	; 124
	.db #0x38	; 56	'8'
	.db #0x10	; 16
	.db #0x00	; 0
	.db #0x00	; 0
	.db #0x00	; 0
	.db #0x00	; 0
	.db #0x00	; 0
	.db #0x00	; 0
	.db #0x00	; 0
	.db #0x00	; 0
	.db #0x00	; 0
	.db #0x00	; 0
	.db #0x00	; 0
	.db #0x00	; 0
	.db #0x00	; 0
	.db #0x00	; 0
	.db #0x00	; 0
	.db #0x00	; 0
	.db #0x00	; 0
	.db #0x00	; 0
	.db #0x00	; 0
	.db #0x00	; 0
	.db #0x00	; 0
	.db #0x00	; 0
	.db #0x00	; 0
	.db #0x00	; 0
	.db #0x00	; 0
	.db #0x00	; 0
	.db #0x00	; 0
	.db #0x00	; 0
	.db #0x00	; 0
	.db #0x00	; 0
	.db #0x00	; 0
	.db #0x00	; 0
	.db #0x00	; 0
	.db #0x00	; 0
	.db #0x00	; 0
	.db #0x00	; 0
	.db #0x00	; 0
	.db #0x00	; 0
	.db #0x00	; 0
	.db #0x00	; 0
	.db #0x00	; 0
	.db #0x00	; 0
	.db #0x00	; 0
	.db #0x00	; 0
	.db #0x00	; 0
	.db #0x00	; 0
	.db #0x00	; 0
	.db #0x00	; 0
	.db #0x00	; 0
	.db #0x00	; 0
	.db #0x00	; 0
	.db #0x00	; 0
	.db #0x00	; 0
	.db #0x00	; 0
	.db #0x00	; 0
	.db #0x00	; 0
	.db #0x00	; 0
	.db #0x00	; 0
	.db #0x00	; 0
	.db #0x00	; 0
	.db #0x00	; 0
	.db #0x00	; 0
	.db #0x00	; 0
	.db #0x00	; 0
	.db #0x00	; 0
	.db #0x00	; 0
	.db #0x00	; 0
	.db #0x00	; 0
	.db #0x00	; 0
	.db #0x00	; 0
	.db #0x00	; 0
	.db #0x00	; 0
	.db #0x00	; 0
	.db #0x00	; 0
	.db #0x00	; 0
	.db #0x00	; 0
	.db #0x00	; 0
	.db #0x00	; 0
	.db #0x00	; 0
	.db #0x00	; 0
	.db #0x00	; 0
	.db #0x00	; 0
	.db #0x00	; 0
	.db #0x00	; 0
	.db #0x00	; 0
	.db #0x00	; 0
	.db #0x00	; 0
	.db #0x00	; 0
	.db #0x00	; 0
	.db #0x00	; 0
	.db #0x00	; 0
	.db #0x00	; 0
	.db #0x00	; 0
	.db #0x00	; 0
	.db #0x00	; 0
	.db #0x00	; 0
	.db #0x00	; 0
	.db #0x00	; 0
	.db #0x00	; 0
	.db #0x00	; 0
	.db #0x00	; 0
	.db #0x00	; 0
	.db #0x00	; 0
	.db #0x00	; 0
	.db #0x00	; 0
	.db #0x00	; 0
	.db #0x00	; 0
	.db #0x00	; 0
	.db #0x00	; 0
	.db #0x00	; 0
	.db #0x00	; 0
	.db #0x00	; 0
	.db #0x00	; 0
	.db #0x00	; 0
	.db #0x00	; 0
	.db #0x00	; 0
	.db #0x00	; 0
	.db #0x00	; 0
	.db #0x00	; 0
	.db #0x00	; 0
	.db #0x00	; 0
	.db #0x00	; 0
	.db #0x00	; 0
	.db #0x00	; 0
	.db #0x00	; 0
	.db #0x00	; 0
	.db #0x00	; 0
	.db #0x00	; 0
	.db #0x00	; 0
	.db #0x00	; 0
	.db #0x00	; 0
	.db #0x00	; 0
	.db #0x00	; 0
	.db #0x00	; 0
	.db #0x00	; 0
	.db #0x00	; 0
	.db #0x00	; 0
	.db #0x00	; 0
	.db #0x00	; 0
	.db #0x00	; 0
	.db #0x00	; 0
	.db #0x00	; 0
	.db #0x00	; 0
	.db #0x00	; 0
	.db #0x00	; 0
	.db #0x00	; 0
	.db #0x00	; 0
	.db #0x00	; 0
	.db #0x00	; 0
	.db #0x00	; 0
	.db #0x00	; 0
	.db #0x00	; 0
	.db #0x00	; 0
	.db #0x00	; 0
	.db #0x00	; 0
	.db #0x00	; 0
	.db #0x00	; 0
	.db #0x00	; 0
	.db #0x00	; 0
	.db #0x00	; 0
	.db #0x00	; 0
	.db #0x00	; 0
	.db #0x00	; 0
	.db #0x00	; 0
	.db #0x00	; 0
	.db #0x00	; 0
	.db #0x00	; 0
	.db #0x00	; 0
	.db #0x00	; 0
	.db #0x00	; 0
	.db #0x00	; 0
	.db #0x00	; 0
	.db #0x00	; 0
	.db #0x00	; 0
	.db #0x00	; 0
	.db #0x00	; 0
	.db #0x00	; 0
	.db #0x00	; 0
	.db #0x00	; 0
	.db #0x00	; 0
	.db #0x00	; 0
	.db #0x00	; 0
	.db #0x00	; 0
	.db #0x00	; 0
	.db #0x00	; 0
	.db #0x00	; 0
	.db #0x00	; 0
	.db #0x00	; 0
	.db #0x00	; 0
	.db #0x00	; 0
	.db #0x00	; 0
	.db #0x00	; 0
	.db #0x00	; 0
	.db #0x00	; 0
	.db #0x00	; 0
	.db #0x00	; 0
	.db #0x00	; 0
	.db #0x00	; 0
	.db #0x00	; 0
	.db #0x00	; 0
	.db #0x00	; 0
	.db #0x00	; 0
	.db #0x00	; 0
	.db #0x00	; 0
	.db #0x00	; 0
	.db #0x00	; 0
	.db #0x00	; 0
	.db #0x00	; 0
	.db #0x00	; 0
	.db #0x00	; 0
	.db #0x00	; 0
	.db #0x00	; 0
	.db #0x00	; 0
	.db #0x00	; 0
	.db #0x00	; 0
	.db #0x00	; 0
	.db #0x00	; 0
	.db #0x00	; 0
	.db #0x00	; 0
	.db #0x00	; 0
	.db #0x00	; 0
	.db #0x00	; 0
	.db #0x00	; 0
	.db #0x00	; 0
	.db #0x00	; 0
	.db #0x00	; 0
	.db #0x00	; 0
	.db #0x00	; 0
	.db #0x00	; 0
	.db #0x00	; 0
	.db #0x00	; 0
	.db #0x00	; 0
	.db #0x00	; 0
	.db #0x00	; 0
	.db #0x00	; 0
	.db #0x00	; 0
	.db #0x00	; 0
	.db #0x00	; 0
	.db #0x00	; 0
	.db #0x00	; 0
	.db #0x00	; 0
	.db #0xfc	; 252
	.db #0xfc	; 252
	.db #0xfc	; 252
	.db #0xfc	; 252
	.db #0x38	; 56	'8'
	.db #0x00	; 0
	.db #0x7e	; 126
	.db #0x00	; 0
	.db #0x00	; 0
	.db #0x00	; 0
	.db #0x00	; 0
	.db #0x00	; 0
	.db #0x00	; 0
	.db #0x00	; 0
	.db #0x00	; 0
	.db #0x00	; 0
	.db #0x00	; 0
	.db #0x00	; 0
	.db #0x00	; 0
	.db #0x00	; 0
	.db #0x00	; 0
	.db #0x00	; 0
	.db #0x00	; 0
	.db #0x00	; 0
	.db #0x00	; 0
	.db #0x00	; 0
	.db #0x00	; 0
	.db #0x00	; 0
	.db #0x00	; 0
	.db #0x00	; 0
	.db #0x00	; 0
	.db #0x00	; 0
	.db #0x00	; 0
	.db #0x00	; 0
	.db #0x00	; 0
	.db #0x00	; 0
	.db #0x00	; 0
	.db #0x00	; 0
	.db #0x00	; 0
	.db #0x00	; 0
	.db #0x00	; 0
	.db #0x00	; 0
	.db #0x00	; 0
	.db #0x00	; 0
	.db #0x00	; 0
	.db #0x00	; 0
	.db #0x00	; 0
	.db #0x00	; 0
	.db #0x00	; 0
	.db #0x00	; 0
	.db #0x00	; 0
	.db #0x00	; 0
	.db #0x00	; 0
	.db #0x00	; 0
	.db #0x00	; 0
	.db #0x00	; 0
	.db #0x00	; 0
	.db #0x00	; 0
	.db #0x00	; 0
	.db #0x00	; 0
	.db #0x00	; 0
	.db #0x00	; 0
	.db #0x00	; 0
	.db #0x00	; 0
	.db #0x00	; 0
	.db #0x00	; 0
	.db #0x00	; 0
	.db #0x00	; 0
	.db #0x00	; 0
	.db #0x00	; 0
	.db #0x00	; 0
	.db #0x00	; 0
	.db #0x00	; 0
	.db #0x00	; 0
	.db #0x00	; 0
	.db #0x00	; 0
	.db #0x00	; 0
	.db #0x00	; 0
	.db #0x00	; 0
	.db #0x00	; 0
	.db #0x00	; 0
	.db #0x00	; 0
	.db #0x00	; 0
	.db #0x00	; 0
	.db #0x00	; 0
	.db #0x00	; 0
	.db #0x00	; 0
	.db #0x00	; 0
	.db #0x00	; 0
	.db #0x00	; 0
	.db #0x00	; 0
	.db #0x00	; 0
	.db #0x00	; 0
	.db #0x00	; 0
	.db #0x00	; 0
	.db #0x00	; 0
	.db #0x00	; 0
	.db #0x00	; 0
	.db #0x00	; 0
	.db #0x00	; 0
	.db #0x00	; 0
	.db #0x00	; 0
	.db #0x00	; 0
	.db #0x00	; 0
	.db #0x00	; 0
	.db #0x00	; 0
	.db #0x00	; 0
	.db #0x00	; 0
	.db #0x00	; 0
	.db #0x00	; 0
	.db #0x00	; 0
	.db #0x00	; 0
	.db #0x00	; 0
	.db #0x00	; 0
	.db #0x00	; 0
	.db #0x00	; 0
	.db #0x00	; 0
	.db #0x00	; 0
	.db #0x00	; 0
	.db #0x00	; 0
	.db #0x00	; 0
	.db #0x00	; 0
	.db #0x00	; 0
	.db #0x00	; 0
	.db #0x00	; 0
	.db #0x00	; 0
	.db #0x00	; 0
	.db #0x00	; 0
	.db #0x00	; 0
	.db #0x00	; 0
	.db #0x00	; 0
	.db #0x00	; 0
	.db #0x00	; 0
	.db #0x00	; 0
	.db #0x00	; 0
	.db #0x00	; 0
	.db #0x00	; 0
	.db #0x00	; 0
	.db #0x00	; 0
	.db #0x00	; 0
	.db #0x00	; 0
	.db #0x00	; 0
	.db #0x00	; 0
	.db #0x00	; 0
	.db #0x00	; 0
	.db #0x00	; 0
	.db #0x00	; 0
	.db #0x00	; 0
	.db #0x00	; 0
	.db #0x00	; 0
	.db #0x00	; 0
	.db #0x00	; 0
	.db #0x00	; 0
	.db #0x00	; 0
	.db #0x00	; 0
	.db #0x00	; 0
	.db #0x00	; 0
	.db #0x00	; 0
	.db #0x00	; 0
	.db #0x00	; 0
	.db #0x00	; 0
	.db #0x00	; 0
	.db #0x00	; 0
	.db #0x00	; 0
	.db #0x00	; 0
	.db #0x00	; 0
	.db #0x00	; 0
	.db #0x00	; 0
	.db #0x00	; 0
	.db #0x00	; 0
	.db #0x00	; 0
	.db #0x00	; 0
	.db #0x00	; 0
	.db #0x00	; 0
	.db #0x00	; 0
	.db #0x00	; 0
	.db #0x00	; 0
	.db #0x00	; 0
	.db #0x00	; 0
	.db #0x00	; 0
	.db #0x00	; 0
	.db #0x00	; 0
	.db #0x00	; 0
	.db #0x00	; 0
	.db #0x00	; 0
	.db #0x00	; 0
	.db #0x00	; 0
	.db #0x00	; 0
	.db #0x00	; 0
	.db #0x00	; 0
	.db #0x00	; 0
	.db #0x00	; 0
	.db #0x00	; 0
	.db #0x00	; 0
	.db #0x00	; 0
	.db #0x00	; 0
	.db #0x00	; 0
	.db #0x00	; 0
	.db #0x00	; 0
	.db #0x00	; 0
	.db #0x00	; 0
	.db #0x00	; 0
	.db #0x00	; 0
	.db #0x00	; 0
	.db #0x00	; 0
	.db #0x00	; 0
	.db #0x00	; 0
	.db #0x00	; 0
	.db #0x00	; 0
	.db #0x00	; 0
	.db #0x00	; 0
	.db #0x00	; 0
	.db #0x00	; 0
	.db #0x00	; 0
	.db #0x00	; 0
	.db #0x00	; 0
	.db #0x00	; 0
	.db #0x00	; 0
	.db #0x00	; 0
	.db #0x00	; 0
	.db #0x00	; 0
	.db #0x00	; 0
	.db #0x00	; 0
	.db #0x00	; 0
	.db #0x00	; 0
	.db #0x00	; 0
	.db #0x00	; 0
	.db #0x00	; 0
	.db #0x00	; 0
	.db #0x00	; 0
	.db #0x00	; 0
	.db #0x00	; 0
	.db #0x00	; 0
	.db #0x00	; 0
	.db #0x00	; 0
	.db #0x00	; 0
	.db #0x00	; 0
	.db #0x00	; 0
	.db #0x00	; 0
	.db #0x00	; 0
	.db #0x00	; 0
	.db #0x00	; 0
	.db #0x00	; 0
	.db #0x00	; 0
	.db #0x00	; 0
	.db #0x00	; 0
	.db #0x00	; 0
	.db #0x00	; 0
	.db #0x00	; 0
	.db #0x00	; 0
	.db #0x00	; 0
	.db #0x00	; 0
	.db #0x00	; 0
	.db #0x00	; 0
	.db #0x00	; 0
	.db #0x00	; 0
G$tiles_colors$0_0$0 == .
_tiles_colors:
	.db #0x11	; 17
	.db #0x11	; 17
	.db #0x11	; 17
	.db #0x11	; 17
	.db #0x11	; 17
	.db #0x11	; 17
	.db #0x11	; 17
	.db #0x11	; 17
	.db #0x11	; 17
	.db #0x11	; 17
	.db #0x11	; 17
	.db #0x11	; 17
	.db #0x11	; 17
	.db #0x11	; 17
	.db #0x11	; 17
	.db #0x11	; 17
	.db #0x11	; 17
	.db #0x11	; 17
	.db #0x11	; 17
	.db #0x11	; 17
	.db #0x11	; 17
	.db #0x11	; 17
	.db #0x11	; 17
	.db #0x11	; 17
	.db #0x11	; 17
	.db #0x11	; 17
	.db #0x11	; 17
	.db #0x11	; 17
	.db #0x11	; 17
	.db #0x11	; 17
	.db #0x11	; 17
	.db #0x11	; 17
	.db #0x11	; 17
	.db #0x11	; 17
	.db #0x11	; 17
	.db #0x11	; 17
	.db #0x11	; 17
	.db #0x11	; 17
	.db #0x11	; 17
	.db #0x11	; 17
	.db #0xf4	; 244
	.db #0xf4	; 244
	.db #0x1f	; 31
	.db #0x1f	; 31
	.db #0xf1	; 241
	.db #0xf1	; 241
	.db #0x11	; 17
	.db #0x11	; 17
	.db #0xf4	; 244
	.db #0xf4	; 244
	.db #0xf1	; 241
	.db #0xf1	; 241
	.db #0xf1	; 241
	.db #0xf1	; 241
	.db #0x11	; 17
	.db #0x11	; 17
	.db #0x54	; 84	'T'
	.db #0x54	; 84	'T'
	.db #0x54	; 84	'T'
	.db #0x54	; 84	'T'
	.db #0x54	; 84	'T'
	.db #0x54	; 84	'T'
	.db #0x14	; 20
	.db #0x11	; 17
	.db #0x14	; 20
	.db #0x14	; 20
	.db #0x14	; 20
	.db #0x14	; 20
	.db #0x14	; 20
	.db #0x14	; 20
	.db #0x14	; 20
	.db #0x11	; 17
	.db #0xf7	; 247
	.db #0xf7	; 247
	.db #0xf7	; 247
	.db #0xf7	; 247
	.db #0xf7	; 247
	.db #0xf7	; 247
	.db #0x11	; 17
	.db #0x11	; 17
	.db #0x17	; 23
	.db #0x17	; 23
	.db #0x17	; 23
	.db #0x17	; 23
	.db #0x17	; 23
	.db #0x17	; 23
	.db #0x11	; 17
	.db #0x11	; 17
	.db #0x11	; 17
	.db #0x11	; 17
	.db #0x11	; 17
	.db #0x11	; 17
	.db #0x11	; 17
	.db #0x11	; 17
	.db #0x11	; 17
	.db #0x11	; 17
	.db #0x11	; 17
	.db #0x14	; 20
	.db #0x11	; 17
	.db #0x11	; 17
	.db #0x11	; 17
	.db #0x11	; 17
	.db #0x11	; 17
	.db #0x11	; 17
	.db #0x11	; 17
	.db #0x14	; 20
	.db #0x11	; 17
	.db #0x14	; 20
	.db #0x11	; 17
	.db #0x14	; 20
	.db #0x11	; 17
	.db #0x11	; 17
	.db #0x1a	; 26
	.db #0x11	; 17
	.db #0x1a	; 26
	.db #0x11	; 17
	.db #0x1a	; 26
	.db #0x11	; 17
	.db #0x1a	; 26
	.db #0x11	; 17
	.db #0x1a	; 26
	.db #0x11	; 17
	.db #0x1a	; 26
	.db #0x11	; 17
	.db #0x1a	; 26
	.db #0x11	; 17
	.db #0x1a	; 26
	.db #0x11	; 17
	.db #0x11	; 17
	.db #0x11	; 17
	.db #0x11	; 17
	.db #0x11	; 17
	.db #0x11	; 17
	.db #0x11	; 17
	.db #0x11	; 17
	.db #0x11	; 17
	.db #0x11	; 17
	.db #0x11	; 17
	.db #0x11	; 17
	.db #0x11	; 17
	.db #0x11	; 17
	.db #0x11	; 17
	.db #0x11	; 17
	.db #0x11	; 17
	.db #0x11	; 17
	.db #0x11	; 17
	.db #0x11	; 17
	.db #0x11	; 17
	.db #0x11	; 17
	.db #0x11	; 17
	.db #0x11	; 17
	.db #0x11	; 17
	.db #0x11	; 17
	.db #0x11	; 17
	.db #0x11	; 17
	.db #0x11	; 17
	.db #0x11	; 17
	.db #0x11	; 17
	.db #0x11	; 17
	.db #0x11	; 17
	.db #0x11	; 17
	.db #0x11	; 17
	.db #0x11	; 17
	.db #0x11	; 17
	.db #0x11	; 17
	.db #0x11	; 17
	.db #0x11	; 17
	.db #0x11	; 17
	.db #0x11	; 17
	.db #0x11	; 17
	.db #0x11	; 17
	.db #0x11	; 17
	.db #0x11	; 17
	.db #0x11	; 17
	.db #0x11	; 17
	.db #0x11	; 17
	.db #0x11	; 17
	.db #0x11	; 17
	.db #0x11	; 17
	.db #0x11	; 17
	.db #0x11	; 17
	.db #0x11	; 17
	.db #0x11	; 17
	.db #0x11	; 17
	.db #0x11	; 17
	.db #0x11	; 17
	.db #0x11	; 17
	.db #0x11	; 17
	.db #0x11	; 17
	.db #0x11	; 17
	.db #0x11	; 17
	.db #0x11	; 17
	.db #0x11	; 17
	.db #0x11	; 17
	.db #0x11	; 17
	.db #0x11	; 17
	.db #0x11	; 17
	.db #0x11	; 17
	.db #0x11	; 17
	.db #0x11	; 17
	.db #0x11	; 17
	.db #0x11	; 17
	.db #0x11	; 17
	.db #0x11	; 17
	.db #0x11	; 17
	.db #0x11	; 17
	.db #0x11	; 17
	.db #0x11	; 17
	.db #0x11	; 17
	.db #0x11	; 17
	.db #0x11	; 17
	.db #0x11	; 17
	.db #0x11	; 17
	.db #0x11	; 17
	.db #0x11	; 17
	.db #0x11	; 17
	.db #0x11	; 17
	.db #0x11	; 17
	.db #0x11	; 17
	.db #0x11	; 17
	.db #0x11	; 17
	.db #0x11	; 17
	.db #0x11	; 17
	.db #0x11	; 17
	.db #0x11	; 17
	.db #0x11	; 17
	.db #0x11	; 17
	.db #0x11	; 17
	.db #0x11	; 17
	.db #0x11	; 17
	.db #0x11	; 17
	.db #0x11	; 17
	.db #0x11	; 17
	.db #0x11	; 17
	.db #0x11	; 17
	.db #0x11	; 17
	.db #0x11	; 17
	.db #0x11	; 17
	.db #0x11	; 17
	.db #0x11	; 17
	.db #0x11	; 17
	.db #0x11	; 17
	.db #0x11	; 17
	.db #0x11	; 17
	.db #0x11	; 17
	.db #0x11	; 17
	.db #0x11	; 17
	.db #0x11	; 17
	.db #0x11	; 17
	.db #0x11	; 17
	.db #0x11	; 17
	.db #0x11	; 17
	.db #0x11	; 17
	.db #0x11	; 17
	.db #0x11	; 17
	.db #0x11	; 17
	.db #0x11	; 17
	.db #0x11	; 17
	.db #0x11	; 17
	.db #0xf1	; 241
	.db #0xf1	; 241
	.db #0xf1	; 241
	.db #0xf1	; 241
	.db #0xf1	; 241
	.db #0x11	; 17
	.db #0x11	; 17
	.db #0x11	; 17
	.db #0xf1	; 241
	.db #0xf1	; 241
	.db #0x1f	; 31
	.db #0xf1	; 241
	.db #0xf1	; 241
	.db #0x11	; 17
	.db #0x11	; 17
	.db #0x11	; 17
	.db #0xf1	; 241
	.db #0xf1	; 241
	.db #0xf1	; 241
	.db #0xf1	; 241
	.db #0xf1	; 241
	.db #0x11	; 17
	.db #0x11	; 17
	.db #0x11	; 17
	.db #0xf1	; 241
	.db #0x1f	; 31
	.db #0x1f	; 31
	.db #0xf1	; 241
	.db #0xf1	; 241
	.db #0x11	; 17
	.db #0x11	; 17
	.db #0x11	; 17
	.db #0xf1	; 241
	.db #0xf1	; 241
	.db #0xf1	; 241
	.db #0xf1	; 241
	.db #0xf1	; 241
	.db #0x11	; 17
	.db #0x11	; 17
	.db #0x11	; 17
	.db #0x1f	; 31
	.db #0x1f	; 31
	.db #0x1f	; 31
	.db #0x11	; 17
	.db #0x11	; 17
	.db #0x11	; 17
	.db #0x11	; 17
	.db #0x11	; 17
	.db #0xf1	; 241
	.db #0xf1	; 241
	.db #0xf1	; 241
	.db #0xf1	; 241
	.db #0xf1	; 241
	.db #0x11	; 17
	.db #0x11	; 17
	.db #0x11	; 17
	.db #0xf1	; 241
	.db #0xf1	; 241
	.db #0xf1	; 241
	.db #0x11	; 17
	.db #0x11	; 17
	.db #0x11	; 17
	.db #0x11	; 17
	.db #0x11	; 17
	.db #0xf1	; 241
	.db #0xf1	; 241
	.db #0xf1	; 241
	.db #0xf1	; 241
	.db #0xf1	; 241
	.db #0x11	; 17
	.db #0x11	; 17
	.db #0x11	; 17
	.db #0xf1	; 241
	.db #0xf1	; 241
	.db #0xf1	; 241
	.db #0xf1	; 241
	.db #0xf1	; 241
	.db #0x11	; 17
	.db #0x11	; 17
	.db #0x11	; 17
	.db #0x11	; 17
	.db #0x11	; 17
	.db #0x11	; 17
	.db #0x11	; 17
	.db #0x11	; 17
	.db #0x11	; 17
	.db #0x11	; 17
	.db #0x11	; 17
	.db #0x11	; 17
	.db #0x11	; 17
	.db #0x11	; 17
	.db #0x11	; 17
	.db #0x11	; 17
	.db #0x11	; 17
	.db #0x11	; 17
	.db #0x11	; 17
	.db #0x11	; 17
	.db #0x11	; 17
	.db #0x11	; 17
	.db #0x11	; 17
	.db #0x11	; 17
	.db #0x11	; 17
	.db #0x11	; 17
	.db #0x11	; 17
	.db #0x11	; 17
	.db #0x11	; 17
	.db #0x11	; 17
	.db #0x11	; 17
	.db #0x11	; 17
	.db #0x11	; 17
	.db #0x11	; 17
	.db #0x11	; 17
	.db #0x11	; 17
	.db #0x11	; 17
	.db #0x11	; 17
	.db #0x11	; 17
	.db #0x11	; 17
	.db #0x11	; 17
	.db #0x11	; 17
	.db #0x11	; 17
	.db #0x11	; 17
	.db #0x11	; 17
	.db #0x11	; 17
	.db #0x11	; 17
	.db #0x11	; 17
	.db #0x11	; 17
	.db #0x11	; 17
	.db #0x11	; 17
	.db #0x11	; 17
	.db #0x11	; 17
	.db #0x11	; 17
	.db #0x11	; 17
	.db #0x11	; 17
	.db #0x11	; 17
	.db #0x11	; 17
	.db #0x11	; 17
	.db #0x11	; 17
	.db #0x11	; 17
	.db #0x11	; 17
	.db #0x11	; 17
	.db #0x11	; 17
	.db #0x11	; 17
	.db #0x11	; 17
	.db #0x11	; 17
	.db #0x11	; 17
	.db #0x11	; 17
	.db #0x11	; 17
	.db #0x11	; 17
	.db #0x11	; 17
	.db #0x11	; 17
	.db #0x11	; 17
	.db #0x11	; 17
	.db #0x11	; 17
	.db #0x11	; 17
	.db #0x11	; 17
	.db #0x11	; 17
	.db #0x11	; 17
	.db #0x11	; 17
	.db #0x11	; 17
	.db #0x11	; 17
	.db #0x11	; 17
	.db #0x11	; 17
	.db #0x11	; 17
	.db #0x11	; 17
	.db #0x11	; 17
	.db #0x11	; 17
	.db #0x11	; 17
	.db #0x11	; 17
	.db #0x11	; 17
	.db #0x11	; 17
	.db #0x11	; 17
	.db #0x11	; 17
	.db #0x11	; 17
	.db #0x11	; 17
	.db #0x11	; 17
	.db #0x11	; 17
	.db #0x11	; 17
	.db #0x11	; 17
	.db #0x11	; 17
	.db #0x11	; 17
	.db #0x11	; 17
	.db #0x11	; 17
	.db #0x11	; 17
	.db #0x11	; 17
	.db #0x11	; 17
	.db #0x11	; 17
	.db #0x11	; 17
	.db #0x11	; 17
	.db #0x11	; 17
	.db #0x11	; 17
	.db #0x11	; 17
	.db #0x11	; 17
	.db #0x11	; 17
	.db #0x11	; 17
	.db #0x11	; 17
	.db #0x11	; 17
	.db #0x11	; 17
	.db #0x11	; 17
	.db #0x11	; 17
	.db #0x11	; 17
	.db #0x11	; 17
	.db #0x11	; 17
	.db #0x11	; 17
	.db #0x11	; 17
	.db #0x11	; 17
	.db #0x11	; 17
	.db #0x11	; 17
	.db #0x11	; 17
	.db #0x11	; 17
	.db #0x11	; 17
	.db #0x11	; 17
	.db #0x11	; 17
	.db #0x11	; 17
	.db #0x11	; 17
	.db #0x11	; 17
	.db #0x11	; 17
	.db #0x11	; 17
	.db #0x11	; 17
	.db #0x11	; 17
	.db #0x11	; 17
	.db #0x11	; 17
	.db #0x11	; 17
	.db #0x11	; 17
	.db #0x11	; 17
	.db #0x11	; 17
	.db #0x11	; 17
	.db #0x11	; 17
	.db #0x11	; 17
	.db #0x11	; 17
	.db #0x11	; 17
	.db #0x11	; 17
	.db #0x11	; 17
	.db #0x11	; 17
	.db #0x11	; 17
	.db #0x11	; 17
	.db #0x11	; 17
	.db #0x11	; 17
	.db #0x11	; 17
	.db #0x11	; 17
	.db #0x11	; 17
	.db #0x11	; 17
	.db #0x11	; 17
	.db #0x11	; 17
	.db #0x11	; 17
	.db #0x11	; 17
	.db #0x11	; 17
	.db #0x11	; 17
	.db #0x11	; 17
	.db #0x11	; 17
	.db #0x11	; 17
	.db #0x11	; 17
	.db #0x11	; 17
	.db #0x11	; 17
	.db #0x31	; 49	'1'
	.db #0x31	; 49	'1'
	.db #0x31	; 49	'1'
	.db #0x31	; 49	'1'
	.db #0x31	; 49	'1'
	.db #0x31	; 49	'1'
	.db #0x31	; 49	'1'
	.db #0x31	; 49	'1'
	.db #0x31	; 49	'1'
	.db #0x11	; 17
	.db #0x11	; 17
	.db #0x31	; 49	'1'
	.db #0x31	; 49	'1'
	.db #0x31	; 49	'1'
	.db #0x31	; 49	'1'
	.db #0x31	; 49	'1'
	.db #0x31	; 49	'1'
	.db #0x31	; 49	'1'
	.db #0x31	; 49	'1'
	.db #0x31	; 49	'1'
	.db #0x31	; 49	'1'
	.db #0x31	; 49	'1'
	.db #0x31	; 49	'1'
	.db #0x31	; 49	'1'
	.db #0x31	; 49	'1'
	.db #0x31	; 49	'1'
	.db #0x31	; 49	'1'
	.db #0x31	; 49	'1'
	.db #0x31	; 49	'1'
	.db #0x31	; 49	'1'
	.db #0x31	; 49	'1'
	.db #0x31	; 49	'1'
	.db #0x31	; 49	'1'
	.db #0x31	; 49	'1'
	.db #0x31	; 49	'1'
	.db #0x31	; 49	'1'
	.db #0x31	; 49	'1'
	.db #0x31	; 49	'1'
	.db #0x31	; 49	'1'
	.db #0x31	; 49	'1'
	.db #0x11	; 17
	.db #0x11	; 17
	.db #0x31	; 49	'1'
	.db #0x31	; 49	'1'
	.db #0x31	; 49	'1'
	.db #0x11	; 17
	.db #0x11	; 17
	.db #0x11	; 17
	.db #0x31	; 49	'1'
	.db #0x31	; 49	'1'
	.db #0x31	; 49	'1'
	.db #0x31	; 49	'1'
	.db #0x31	; 49	'1'
	.db #0x31	; 49	'1'
	.db #0x31	; 49	'1'
	.db #0x31	; 49	'1'
	.db #0x31	; 49	'1'
	.db #0x31	; 49	'1'
	.db #0x31	; 49	'1'
	.db #0x31	; 49	'1'
	.db #0x31	; 49	'1'
	.db #0x31	; 49	'1'
	.db #0x31	; 49	'1'
	.db #0x31	; 49	'1'
	.db #0x31	; 49	'1'
	.db #0x31	; 49	'1'
	.db #0x31	; 49	'1'
	.db #0x31	; 49	'1'
	.db #0x31	; 49	'1'
	.db #0x31	; 49	'1'
	.db #0x31	; 49	'1'
	.db #0x31	; 49	'1'
	.db #0x31	; 49	'1'
	.db #0x31	; 49	'1'
	.db #0x31	; 49	'1'
	.db #0x31	; 49	'1'
	.db #0x31	; 49	'1'
	.db #0x31	; 49	'1'
	.db #0x31	; 49	'1'
	.db #0x31	; 49	'1'
	.db #0x11	; 17
	.db #0x11	; 17
	.db #0x11	; 17
	.db #0x11	; 17
	.db #0x11	; 17
	.db #0x11	; 17
	.db #0x11	; 17
	.db #0x11	; 17
	.db #0x11	; 17
	.db #0x11	; 17
	.db #0x11	; 17
	.db #0x11	; 17
	.db #0x11	; 17
	.db #0x11	; 17
	.db #0x11	; 17
	.db #0x11	; 17
	.db #0x11	; 17
	.db #0x11	; 17
	.db #0x11	; 17
	.db #0x11	; 17
	.db #0x11	; 17
	.db #0x11	; 17
	.db #0x11	; 17
	.db #0x11	; 17
	.db #0x11	; 17
	.db #0x11	; 17
	.db #0x11	; 17
	.db #0x11	; 17
	.db #0x11	; 17
	.db #0x11	; 17
	.db #0x11	; 17
	.db #0x11	; 17
	.db #0x11	; 17
	.db #0x11	; 17
	.db #0x11	; 17
	.db #0x11	; 17
	.db #0x11	; 17
	.db #0x11	; 17
	.db #0x11	; 17
	.db #0x11	; 17
	.db #0x11	; 17
	.db #0x11	; 17
	.db #0x11	; 17
	.db #0x11	; 17
	.db #0x11	; 17
	.db #0x11	; 17
	.db #0x11	; 17
	.db #0x11	; 17
	.db #0x11	; 17
	.db #0x11	; 17
	.db #0x11	; 17
	.db #0x11	; 17
	.db #0x11	; 17
	.db #0x11	; 17
	.db #0x11	; 17
	.db #0x11	; 17
	.db #0x11	; 17
	.db #0x11	; 17
	.db #0x11	; 17
	.db #0x11	; 17
	.db #0x11	; 17
	.db #0x11	; 17
	.db #0x11	; 17
	.db #0x11	; 17
	.db #0x11	; 17
	.db #0x11	; 17
	.db #0x11	; 17
	.db #0x11	; 17
	.db #0x11	; 17
	.db #0x11	; 17
	.db #0x11	; 17
	.db #0x11	; 17
	.db #0x11	; 17
	.db #0x11	; 17
	.db #0x11	; 17
	.db #0x11	; 17
	.db #0x11	; 17
	.db #0x11	; 17
	.db #0x11	; 17
	.db #0x11	; 17
	.db #0x11	; 17
	.db #0x11	; 17
	.db #0x11	; 17
	.db #0x11	; 17
	.db #0x11	; 17
	.db #0x11	; 17
	.db #0x11	; 17
	.db #0x11	; 17
	.db #0x11	; 17
	.db #0x11	; 17
	.db #0x11	; 17
	.db #0x11	; 17
	.db #0x11	; 17
	.db #0x11	; 17
	.db #0x11	; 17
	.db #0x11	; 17
	.db #0x11	; 17
	.db #0x11	; 17
	.db #0x11	; 17
	.db #0x11	; 17
	.db #0x11	; 17
	.db #0x11	; 17
	.db #0x11	; 17
	.db #0x11	; 17
	.db #0x11	; 17
	.db #0x11	; 17
	.db #0x11	; 17
	.db #0x11	; 17
	.db #0x11	; 17
	.db #0x11	; 17
	.db #0x11	; 17
	.db #0x11	; 17
	.db #0x11	; 17
	.db #0x11	; 17
	.db #0x11	; 17
	.db #0x11	; 17
	.db #0x11	; 17
	.db #0x11	; 17
	.db #0x11	; 17
	.db #0x11	; 17
	.db #0x11	; 17
	.db #0x11	; 17
	.db #0x11	; 17
	.db #0x11	; 17
	.db #0x11	; 17
	.db #0x11	; 17
	.db #0x11	; 17
	.db #0x11	; 17
	.db #0x11	; 17
	.db #0x11	; 17
	.db #0x11	; 17
	.db #0x11	; 17
	.db #0x11	; 17
	.db #0x11	; 17
	.db #0x11	; 17
	.db #0x11	; 17
	.db #0x11	; 17
	.db #0x11	; 17
	.db #0x11	; 17
	.db #0x11	; 17
	.db #0x11	; 17
	.db #0x11	; 17
	.db #0x11	; 17
	.db #0x11	; 17
	.db #0x11	; 17
	.db #0x11	; 17
	.db #0x11	; 17
	.db #0x11	; 17
	.db #0x11	; 17
	.db #0x11	; 17
	.db #0x11	; 17
	.db #0x11	; 17
	.db #0x11	; 17
	.db #0x11	; 17
	.db #0x11	; 17
	.db #0x11	; 17
	.db #0x11	; 17
	.db #0x11	; 17
	.db #0x11	; 17
	.db #0x11	; 17
	.db #0x11	; 17
	.db #0x11	; 17
	.db #0x11	; 17
	.db #0x11	; 17
	.db #0x11	; 17
	.db #0x11	; 17
	.db #0x11	; 17
	.db #0x11	; 17
	.db #0x11	; 17
	.db #0x11	; 17
	.db #0x11	; 17
	.db #0x11	; 17
	.db #0x11	; 17
	.db #0x11	; 17
	.db #0x11	; 17
	.db #0x11	; 17
	.db #0x1c	; 28
	.db #0x1c	; 28
	.db #0x1c	; 28
	.db #0x1c	; 28
	.db #0x1c	; 28
	.db #0x11	; 17
	.db #0x11	; 17
	.db #0x11	; 17
	.db #0x1c	; 28
	.db #0x1c	; 28
	.db #0x1c	; 28
	.db #0x1c	; 28
	.db #0x1c	; 28
	.db #0x11	; 17
	.db #0x11	; 17
	.db #0x11	; 17
	.db #0x1c	; 28
	.db #0x1c	; 28
	.db #0x1c	; 28
	.db #0x1c	; 28
	.db #0x1c	; 28
	.db #0x11	; 17
	.db #0x11	; 17
	.db #0x11	; 17
	.db #0x1c	; 28
	.db #0x1c	; 28
	.db #0x1c	; 28
	.db #0x1c	; 28
	.db #0x1c	; 28
	.db #0x11	; 17
	.db #0x11	; 17
	.db #0x11	; 17
	.db #0x1c	; 28
	.db #0x1c	; 28
	.db #0x1c	; 28
	.db #0x1c	; 28
	.db #0x1c	; 28
	.db #0x11	; 17
	.db #0x11	; 17
	.db #0x11	; 17
	.db #0x11	; 17
	.db #0x11	; 17
	.db #0x1c	; 28
	.db #0x1c	; 28
	.db #0x1c	; 28
	.db #0x11	; 17
	.db #0x11	; 17
	.db #0x11	; 17
	.db #0x1c	; 28
	.db #0x1c	; 28
	.db #0x1c	; 28
	.db #0x1c	; 28
	.db #0x1c	; 28
	.db #0x11	; 17
	.db #0x11	; 17
	.db #0x11	; 17
	.db #0x1c	; 28
	.db #0x1c	; 28
	.db #0x1c	; 28
	.db #0x1c	; 28
	.db #0x1c	; 28
	.db #0x11	; 17
	.db #0x11	; 17
	.db #0x11	; 17
	.db #0x1c	; 28
	.db #0x1c	; 28
	.db #0x1c	; 28
	.db #0x1c	; 28
	.db #0x1c	; 28
	.db #0x11	; 17
	.db #0x11	; 17
	.db #0x11	; 17
	.db #0x1c	; 28
	.db #0x1c	; 28
	.db #0x1c	; 28
	.db #0x1c	; 28
	.db #0x1c	; 28
	.db #0x11	; 17
	.db #0x11	; 17
	.db #0x11	; 17
	.db #0x11	; 17
	.db #0x11	; 17
	.db #0x11	; 17
	.db #0x11	; 17
	.db #0x11	; 17
	.db #0x11	; 17
	.db #0x11	; 17
	.db #0x11	; 17
	.db #0x11	; 17
	.db #0x11	; 17
	.db #0x11	; 17
	.db #0x11	; 17
	.db #0x11	; 17
	.db #0x11	; 17
	.db #0x11	; 17
	.db #0x11	; 17
	.db #0x11	; 17
	.db #0x11	; 17
	.db #0x11	; 17
	.db #0x11	; 17
	.db #0x11	; 17
	.db #0x11	; 17
	.db #0x11	; 17
	.db #0x11	; 17
	.db #0x11	; 17
	.db #0x11	; 17
	.db #0x11	; 17
	.db #0x11	; 17
	.db #0x11	; 17
	.db #0x11	; 17
	.db #0x11	; 17
	.db #0x11	; 17
	.db #0x11	; 17
	.db #0x11	; 17
	.db #0x11	; 17
	.db #0x11	; 17
	.db #0x11	; 17
	.db #0x11	; 17
	.db #0x11	; 17
	.db #0x11	; 17
	.db #0x11	; 17
	.db #0x11	; 17
	.db #0x11	; 17
	.db #0x11	; 17
	.db #0x11	; 17
	.db #0x11	; 17
	.db #0x11	; 17
	.db #0x11	; 17
	.db #0x11	; 17
	.db #0x11	; 17
	.db #0x11	; 17
	.db #0x11	; 17
	.db #0x11	; 17
	.db #0x11	; 17
	.db #0x11	; 17
	.db #0x11	; 17
	.db #0x11	; 17
	.db #0x11	; 17
	.db #0x11	; 17
	.db #0x11	; 17
	.db #0x11	; 17
	.db #0x11	; 17
	.db #0x11	; 17
	.db #0x11	; 17
	.db #0x11	; 17
	.db #0x11	; 17
	.db #0x11	; 17
	.db #0x11	; 17
	.db #0x11	; 17
	.db #0x11	; 17
	.db #0x11	; 17
	.db #0x11	; 17
	.db #0x11	; 17
	.db #0x11	; 17
	.db #0x11	; 17
	.db #0x11	; 17
	.db #0x11	; 17
	.db #0x11	; 17
	.db #0x11	; 17
	.db #0x11	; 17
	.db #0x11	; 17
	.db #0x11	; 17
	.db #0x11	; 17
	.db #0x11	; 17
	.db #0x11	; 17
	.db #0x11	; 17
	.db #0x11	; 17
	.db #0x11	; 17
	.db #0x11	; 17
	.db #0x11	; 17
	.db #0x11	; 17
	.db #0x11	; 17
	.db #0x11	; 17
	.db #0x11	; 17
	.db #0x11	; 17
	.db #0x11	; 17
	.db #0x11	; 17
	.db #0x11	; 17
	.db #0x11	; 17
	.db #0x11	; 17
	.db #0x11	; 17
	.db #0x11	; 17
	.db #0x11	; 17
	.db #0x11	; 17
	.db #0x11	; 17
	.db #0x11	; 17
	.db #0x11	; 17
	.db #0x11	; 17
	.db #0x11	; 17
	.db #0x11	; 17
	.db #0x11	; 17
	.db #0x11	; 17
	.db #0x11	; 17
	.db #0x11	; 17
	.db #0x11	; 17
	.db #0x11	; 17
	.db #0x11	; 17
	.db #0x11	; 17
	.db #0x11	; 17
	.db #0x11	; 17
	.db #0x11	; 17
	.db #0x11	; 17
	.db #0x11	; 17
	.db #0x11	; 17
	.db #0x11	; 17
	.db #0x11	; 17
	.db #0x11	; 17
	.db #0x11	; 17
	.db #0x11	; 17
	.db #0x11	; 17
	.db #0x11	; 17
	.db #0x11	; 17
	.db #0x11	; 17
	.db #0x11	; 17
	.db #0x11	; 17
	.db #0x11	; 17
	.db #0x11	; 17
	.db #0x11	; 17
	.db #0x11	; 17
	.db #0x11	; 17
	.db #0x11	; 17
	.db #0x11	; 17
	.db #0x11	; 17
	.db #0x11	; 17
	.db #0x11	; 17
	.db #0x11	; 17
	.db #0x11	; 17
	.db #0x11	; 17
	.db #0x11	; 17
	.db #0x11	; 17
	.db #0x11	; 17
	.db #0x11	; 17
	.db #0x11	; 17
	.db #0x11	; 17
	.db #0x11	; 17
	.db #0x11	; 17
	.db #0x11	; 17
	.db #0x11	; 17
	.db #0x11	; 17
	.db #0x11	; 17
	.db #0x11	; 17
	.db #0x11	; 17
	.db #0x11	; 17
	.db #0x11	; 17
	.db #0x11	; 17
	.db #0x11	; 17
	.db #0x11	; 17
	.db #0x11	; 17
	.db #0x11	; 17
	.db #0x11	; 17
	.db #0x11	; 17
	.db #0x11	; 17
	.db #0x11	; 17
	.db #0x11	; 17
	.db #0x11	; 17
	.db #0x11	; 17
	.db #0xf1	; 241
	.db #0xf1	; 241
	.db #0xf1	; 241
	.db #0xf1	; 241
	.db #0xf1	; 241
	.db #0xf1	; 241
	.db #0xf1	; 241
	.db #0x11	; 17
	.db #0x11	; 17
	.db #0x11	; 17
	.db #0x11	; 17
	.db #0x11	; 17
	.db #0x11	; 17
	.db #0x11	; 17
	.db #0x11	; 17
	.db #0x11	; 17
	.db #0xf1	; 241
	.db #0xf1	; 241
	.db #0xf1	; 241
	.db #0xf1	; 241
	.db #0xf1	; 241
	.db #0x11	; 17
	.db #0xf1	; 241
	.db #0x11	; 17
	.db #0xf1	; 241
	.db #0xf1	; 241
	.db #0xf1	; 241
	.db #0x11	; 17
	.db #0x11	; 17
	.db #0x11	; 17
	.db #0x11	; 17
	.db #0x11	; 17
	.db #0xf1	; 241
	.db #0xf1	; 241
	.db #0xf1	; 241
	.db #0xf1	; 241
	.db #0xf1	; 241
	.db #0xf1	; 241
	.db #0xf1	; 241
	.db #0x11	; 17
	.db #0xf1	; 241
	.db #0xf1	; 241
	.db #0xf1	; 241
	.db #0xf1	; 241
	.db #0xf1	; 241
	.db #0xf1	; 241
	.db #0xf1	; 241
	.db #0x11	; 17
	.db #0xf1	; 241
	.db #0xf1	; 241
	.db #0xf1	; 241
	.db #0xf1	; 241
	.db #0xf1	; 241
	.db #0xf1	; 241
	.db #0xf1	; 241
	.db #0x11	; 17
	.db #0xf1	; 241
	.db #0xf1	; 241
	.db #0xf1	; 241
	.db #0xf1	; 241
	.db #0xf1	; 241
	.db #0xf1	; 241
	.db #0xf1	; 241
	.db #0x11	; 17
	.db #0xf1	; 241
	.db #0xf1	; 241
	.db #0xf1	; 241
	.db #0x11	; 17
	.db #0x11	; 17
	.db #0x11	; 17
	.db #0x11	; 17
	.db #0x11	; 17
	.db #0xf1	; 241
	.db #0xf1	; 241
	.db #0xf1	; 241
	.db #0xf1	; 241
	.db #0xf1	; 241
	.db #0xf1	; 241
	.db #0xf1	; 241
	.db #0x11	; 17
	.db #0xf1	; 241
	.db #0xf1	; 241
	.db #0xf1	; 241
	.db #0xf1	; 241
	.db #0xf1	; 241
	.db #0xf1	; 241
	.db #0xf1	; 241
	.db #0x11	; 17
	.db #0x11	; 17
	.db #0xf1	; 241
	.db #0xf1	; 241
	.db #0xf1	; 241
	.db #0xf1	; 241
	.db #0xf1	; 241
	.db #0x11	; 17
	.db #0x11	; 17
	.db #0x11	; 17
	.db #0xf1	; 241
	.db #0xf1	; 241
	.db #0xf1	; 241
	.db #0xf1	; 241
	.db #0xf1	; 241
	.db #0x11	; 17
	.db #0x11	; 17
	.db #0x11	; 17
	.db #0x11	; 17
	.db #0x11	; 17
	.db #0x11	; 17
	.db #0x11	; 17
	.db #0xf1	; 241
	.db #0xf1	; 241
	.db #0xf1	; 241
	.db #0x11	; 17
	.db #0x11	; 17
	.db #0x11	; 17
	.db #0xf1	; 241
	.db #0x11	; 17
	.db #0x11	; 17
	.db #0x11	; 17
	.db #0x11	; 17
	.db #0x11	; 17
	.db #0x11	; 17
	.db #0x11	; 17
	.db #0x11	; 17
	.db #0x11	; 17
	.db #0xf1	; 241
	.db #0xf1	; 241
	.db #0x11	; 17
	.db #0x11	; 17
	.db #0xf1	; 241
	.db #0xf1	; 241
	.db #0xf1	; 241
	.db #0xf1	; 241
	.db #0xf1	; 241
	.db #0x11	; 17
	.db #0x11	; 17
	.db #0xf1	; 241
	.db #0xf1	; 241
	.db #0xf1	; 241
	.db #0xf1	; 241
	.db #0xf1	; 241
	.db #0xf1	; 241
	.db #0xf1	; 241
	.db #0x11	; 17
	.db #0xf1	; 241
	.db #0xf1	; 241
	.db #0xf1	; 241
	.db #0xf1	; 241
	.db #0xf1	; 241
	.db #0xf1	; 241
	.db #0xf1	; 241
	.db #0x11	; 17
	.db #0xf1	; 241
	.db #0xf1	; 241
	.db #0xf1	; 241
	.db #0xf1	; 241
	.db #0xf1	; 241
	.db #0xf1	; 241
	.db #0xf1	; 241
	.db #0x11	; 17
	.db #0xf1	; 241
	.db #0xf1	; 241
	.db #0xf1	; 241
	.db #0xf1	; 241
	.db #0xf1	; 241
	.db #0xf1	; 241
	.db #0xf1	; 241
	.db #0x11	; 17
	.db #0xf1	; 241
	.db #0xf1	; 241
	.db #0xf1	; 241
	.db #0xf1	; 241
	.db #0xf1	; 241
	.db #0xf1	; 241
	.db #0xf1	; 241
	.db #0x11	; 17
	.db #0xf1	; 241
	.db #0xf1	; 241
	.db #0xf1	; 241
	.db #0xf1	; 241
	.db #0xf1	; 241
	.db #0xf1	; 241
	.db #0xf1	; 241
	.db #0x11	; 17
	.db #0xf1	; 241
	.db #0xf1	; 241
	.db #0xf1	; 241
	.db #0xf1	; 241
	.db #0xf1	; 241
	.db #0xf1	; 241
	.db #0xf1	; 241
	.db #0x11	; 17
	.db #0xf1	; 241
	.db #0xf1	; 241
	.db #0xf1	; 241
	.db #0xf1	; 241
	.db #0xf1	; 241
	.db #0xf1	; 241
	.db #0xf1	; 241
	.db #0x11	; 17
	.db #0xf1	; 241
	.db #0xf1	; 241
	.db #0xf1	; 241
	.db #0xf1	; 241
	.db #0xf1	; 241
	.db #0xf1	; 241
	.db #0xf1	; 241
	.db #0x11	; 17
	.db #0xf1	; 241
	.db #0xf1	; 241
	.db #0xf1	; 241
	.db #0xf1	; 241
	.db #0xf1	; 241
	.db #0xf1	; 241
	.db #0xf1	; 241
	.db #0x11	; 17
	.db #0x11	; 17
	.db #0x11	; 17
	.db #0xf1	; 241
	.db #0xf1	; 241
	.db #0x11	; 17
	.db #0xf1	; 241
	.db #0xf1	; 241
	.db #0x11	; 17
	.db #0x11	; 17
	.db #0x11	; 17
	.db #0xf1	; 241
	.db #0xf1	; 241
	.db #0x11	; 17
	.db #0xf1	; 241
	.db #0xf1	; 241
	.db #0xf1	; 241
	.db #0xf1	; 241
	.db #0xf1	; 241
	.db #0xf1	; 241
	.db #0xf1	; 241
	.db #0xf1	; 241
	.db #0xf1	; 241
	.db #0xf1	; 241
	.db #0x11	; 17
	.db #0x11	; 17
	.db #0x11	; 17
	.db #0xf1	; 241
	.db #0x11	; 17
	.db #0xf1	; 241
	.db #0x11	; 17
	.db #0x11	; 17
	.db #0x11	; 17
	.db #0xf1	; 241
	.db #0xf1	; 241
	.db #0xf1	; 241
	.db #0xf1	; 241
	.db #0xf1	; 241
	.db #0xf1	; 241
	.db #0xf1	; 241
	.db #0x11	; 17
	.db #0xf1	; 241
	.db #0xf1	; 241
	.db #0xf1	; 241
	.db #0xf1	; 241
	.db #0xf1	; 241
	.db #0x11	; 17
	.db #0xe1	; 225
	.db #0x11	; 17
	.db #0xf1	; 241
	.db #0xf1	; 241
	.db #0xf1	; 241
	.db #0xf1	; 241
	.db #0xf1	; 241
	.db #0xf1	; 241
	.db #0xf1	; 241
	.db #0x11	; 17
	.db #0xf1	; 241
	.db #0xf1	; 241
	.db #0xf1	; 241
	.db #0xf1	; 241
	.db #0xf1	; 241
	.db #0xf1	; 241
	.db #0xf1	; 241
	.db #0x11	; 17
	.db #0xf1	; 241
	.db #0xf1	; 241
	.db #0xf1	; 241
	.db #0xf1	; 241
	.db #0xf1	; 241
	.db #0xf1	; 241
	.db #0xf1	; 241
	.db #0x11	; 17
	.db #0xf1	; 241
	.db #0xf1	; 241
	.db #0xf1	; 241
	.db #0xf1	; 241
	.db #0xf1	; 241
	.db #0xf1	; 241
	.db #0xf1	; 241
	.db #0x11	; 17
	.db #0xf1	; 241
	.db #0xf1	; 241
	.db #0xf1	; 241
	.db #0xf1	; 241
	.db #0xf1	; 241
	.db #0xf1	; 241
	.db #0xf1	; 241
	.db #0x11	; 17
	.db #0xf1	; 241
	.db #0xf1	; 241
	.db #0xf1	; 241
	.db #0xf1	; 241
	.db #0xf1	; 241
	.db #0xf1	; 241
	.db #0xf1	; 241
	.db #0x11	; 17
	.db #0xf1	; 241
	.db #0xf1	; 241
	.db #0xf1	; 241
	.db #0xf1	; 241
	.db #0xf1	; 241
	.db #0xf1	; 241
	.db #0xf1	; 241
	.db #0x11	; 17
	.db #0xf1	; 241
	.db #0xf1	; 241
	.db #0xf1	; 241
	.db #0xf1	; 241
	.db #0xf1	; 241
	.db #0xf1	; 241
	.db #0xf1	; 241
	.db #0x11	; 17
	.db #0xf1	; 241
	.db #0xf1	; 241
	.db #0xf1	; 241
	.db #0xf1	; 241
	.db #0xf1	; 241
	.db #0xf1	; 241
	.db #0xf1	; 241
	.db #0x11	; 17
	.db #0xf1	; 241
	.db #0xf1	; 241
	.db #0xf1	; 241
	.db #0xf1	; 241
	.db #0xf1	; 241
	.db #0xf1	; 241
	.db #0xf1	; 241
	.db #0x11	; 17
	.db #0xf1	; 241
	.db #0xf1	; 241
	.db #0xf1	; 241
	.db #0xf1	; 241
	.db #0xf1	; 241
	.db #0xf1	; 241
	.db #0xf1	; 241
	.db #0x11	; 17
	.db #0xf1	; 241
	.db #0xf1	; 241
	.db #0xf1	; 241
	.db #0xf1	; 241
	.db #0xf1	; 241
	.db #0xf1	; 241
	.db #0xf1	; 241
	.db #0x11	; 17
	.db #0xf1	; 241
	.db #0xf1	; 241
	.db #0xf1	; 241
	.db #0xf1	; 241
	.db #0xf1	; 241
	.db #0xf1	; 241
	.db #0xf1	; 241
	.db #0x11	; 17
	.db #0xf1	; 241
	.db #0xf1	; 241
	.db #0xf1	; 241
	.db #0xf1	; 241
	.db #0xf1	; 241
	.db #0xf1	; 241
	.db #0xf1	; 241
	.db #0x11	; 17
	.db #0xf1	; 241
	.db #0xf1	; 241
	.db #0xf1	; 241
	.db #0xf1	; 241
	.db #0xf1	; 241
	.db #0xf1	; 241
	.db #0xf1	; 241
	.db #0x11	; 17
	.db #0xf1	; 241
	.db #0xf1	; 241
	.db #0xf1	; 241
	.db #0xf1	; 241
	.db #0xf1	; 241
	.db #0xf1	; 241
	.db #0xf1	; 241
	.db #0x11	; 17
	.db #0xf1	; 241
	.db #0xf1	; 241
	.db #0xf1	; 241
	.db #0xf1	; 241
	.db #0xf1	; 241
	.db #0xf1	; 241
	.db #0xf1	; 241
	.db #0x11	; 17
	.db #0xf1	; 241
	.db #0xf1	; 241
	.db #0xf1	; 241
	.db #0xf1	; 241
	.db #0xf1	; 241
	.db #0xf1	; 241
	.db #0xf1	; 241
	.db #0x11	; 17
	.db #0xf1	; 241
	.db #0xf1	; 241
	.db #0xf1	; 241
	.db #0xf1	; 241
	.db #0xf1	; 241
	.db #0xf1	; 241
	.db #0xf1	; 241
	.db #0x11	; 17
	.db #0xf1	; 241
	.db #0xf1	; 241
	.db #0xf1	; 241
	.db #0xf1	; 241
	.db #0xf1	; 241
	.db #0xf1	; 241
	.db #0xf1	; 241
	.db #0x11	; 17
	.db #0xf1	; 241
	.db #0xf1	; 241
	.db #0xf1	; 241
	.db #0xf1	; 241
	.db #0xf1	; 241
	.db #0xf1	; 241
	.db #0xf1	; 241
	.db #0x11	; 17
	.db #0xf1	; 241
	.db #0xf1	; 241
	.db #0xf1	; 241
	.db #0xf1	; 241
	.db #0xf1	; 241
	.db #0xf1	; 241
	.db #0xf1	; 241
	.db #0x11	; 17
	.db #0xf1	; 241
	.db #0xf1	; 241
	.db #0xf1	; 241
	.db #0xf1	; 241
	.db #0xf1	; 241
	.db #0xf1	; 241
	.db #0xf1	; 241
	.db #0x11	; 17
	.db #0xf1	; 241
	.db #0xf1	; 241
	.db #0xf1	; 241
	.db #0xf1	; 241
	.db #0xf1	; 241
	.db #0xf1	; 241
	.db #0xf1	; 241
	.db #0x11	; 17
	.db #0xf1	; 241
	.db #0xf1	; 241
	.db #0xf1	; 241
	.db #0xf1	; 241
	.db #0xf1	; 241
	.db #0xf1	; 241
	.db #0xf1	; 241
	.db #0x11	; 17
	.db #0xf1	; 241
	.db #0xf1	; 241
	.db #0xf1	; 241
	.db #0xf1	; 241
	.db #0xf1	; 241
	.db #0xf1	; 241
	.db #0xf1	; 241
	.db #0x11	; 17
	.db #0xf1	; 241
	.db #0xf1	; 241
	.db #0xf1	; 241
	.db #0xf1	; 241
	.db #0xf1	; 241
	.db #0xf1	; 241
	.db #0xf1	; 241
	.db #0x11	; 17
	.db #0xf1	; 241
	.db #0xf1	; 241
	.db #0xf1	; 241
	.db #0xf1	; 241
	.db #0xf1	; 241
	.db #0xf1	; 241
	.db #0xf1	; 241
	.db #0x11	; 17
	.db #0x11	; 17
	.db #0xf1	; 241
	.db #0xf1	; 241
	.db #0xf1	; 241
	.db #0xf1	; 241
	.db #0xf1	; 241
	.db #0x11	; 17
	.db #0x11	; 17
	.db #0xf1	; 241
	.db #0xf1	; 241
	.db #0xf1	; 241
	.db #0xf1	; 241
	.db #0xf1	; 241
	.db #0xf1	; 241
	.db #0xf1	; 241
	.db #0x11	; 17
	.db #0xf1	; 241
	.db #0xf1	; 241
	.db #0xf1	; 241
	.db #0xf1	; 241
	.db #0x11	; 17
	.db #0x11	; 17
	.db #0x11	; 17
	.db #0x11	; 17
	.db #0x11	; 17
	.db #0x14	; 20
	.db #0xb1	; 177
	.db #0x21	; 33
	.db #0x1c	; 28
	.db #0x1c	; 28
	.db #0xb1	; 177
	.db #0xba	; 186
	.db #0x11	; 17
	.db #0x61	; 97	'a'
	.db #0x61	; 97	'a'
	.db #0x61	; 97	'a'
	.db #0x61	; 97	'a'
	.db #0x61	; 97	'a'
	.db #0x61	; 97	'a'
	.db #0x11	; 17
	.db #0x11	; 17
	.db #0x11	; 17
	.db #0x11	; 17
	.db #0x11	; 17
	.db #0x11	; 17
	.db #0x11	; 17
	.db #0x11	; 17
	.db #0x11	; 17
	.db #0x11	; 17
	.db #0x11	; 17
	.db #0x11	; 17
	.db #0x11	; 17
	.db #0x11	; 17
	.db #0x11	; 17
	.db #0x11	; 17
	.db #0x11	; 17
	.db #0x11	; 17
	.db #0x11	; 17
	.db #0x11	; 17
	.db #0x11	; 17
	.db #0x11	; 17
	.db #0x11	; 17
	.db #0x11	; 17
	.db #0x11	; 17
	.db #0x11	; 17
	.db #0x11	; 17
	.db #0x11	; 17
	.db #0x11	; 17
	.db #0x11	; 17
	.db #0x11	; 17
	.db #0x11	; 17
	.db #0x11	; 17
	.db #0x11	; 17
	.db #0x11	; 17
	.db #0x11	; 17
	.db #0x11	; 17
	.db #0x11	; 17
	.db #0x11	; 17
	.db #0x11	; 17
	.db #0x11	; 17
	.db #0x11	; 17
	.db #0x11	; 17
	.db #0x11	; 17
	.db #0x11	; 17
	.db #0x11	; 17
	.db #0x11	; 17
	.db #0x11	; 17
	.db #0x11	; 17
	.db #0x11	; 17
	.db #0x11	; 17
	.db #0x11	; 17
	.db #0x11	; 17
	.db #0x11	; 17
	.db #0x11	; 17
	.db #0x11	; 17
	.db #0x11	; 17
	.db #0x11	; 17
	.db #0x11	; 17
	.db #0x11	; 17
	.db #0x11	; 17
	.db #0x11	; 17
	.db #0x11	; 17
	.db #0x11	; 17
	.db #0x11	; 17
	.db #0x11	; 17
	.db #0x11	; 17
	.db #0x11	; 17
	.db #0x11	; 17
	.db #0x11	; 17
	.db #0x11	; 17
	.db #0x11	; 17
	.db #0x11	; 17
	.db #0x11	; 17
	.db #0x11	; 17
	.db #0x11	; 17
	.db #0x11	; 17
	.db #0x11	; 17
	.db #0x11	; 17
	.db #0x11	; 17
	.db #0x11	; 17
	.db #0x11	; 17
	.db #0x11	; 17
	.db #0x11	; 17
	.db #0x11	; 17
	.db #0x11	; 17
	.db #0x11	; 17
	.db #0x11	; 17
	.db #0x11	; 17
	.db #0x11	; 17
	.db #0x11	; 17
	.db #0x11	; 17
	.db #0x11	; 17
	.db #0x11	; 17
	.db #0x11	; 17
	.db #0x11	; 17
	.db #0x11	; 17
	.db #0x11	; 17
	.db #0x11	; 17
	.db #0x11	; 17
	.db #0x11	; 17
	.db #0x11	; 17
	.db #0x11	; 17
	.db #0x11	; 17
	.db #0x11	; 17
	.db #0x11	; 17
	.db #0x11	; 17
	.db #0x11	; 17
	.db #0x11	; 17
	.db #0x11	; 17
	.db #0x11	; 17
	.db #0x11	; 17
	.db #0x11	; 17
	.db #0x11	; 17
	.db #0x11	; 17
	.db #0x11	; 17
	.db #0x11	; 17
	.db #0x11	; 17
	.db #0x11	; 17
	.db #0x11	; 17
	.db #0x11	; 17
	.db #0x11	; 17
	.db #0x11	; 17
	.db #0x11	; 17
	.db #0x11	; 17
	.db #0x11	; 17
	.db #0x11	; 17
	.db #0x11	; 17
	.db #0x11	; 17
	.db #0x11	; 17
	.db #0x11	; 17
	.db #0x11	; 17
	.db #0x11	; 17
	.db #0x11	; 17
	.db #0x11	; 17
	.db #0x11	; 17
	.db #0x11	; 17
	.db #0x11	; 17
	.db #0x11	; 17
	.db #0x11	; 17
	.db #0x11	; 17
	.db #0x11	; 17
	.db #0x11	; 17
	.db #0x11	; 17
	.db #0x11	; 17
	.db #0x11	; 17
	.db #0x11	; 17
	.db #0x11	; 17
	.db #0x11	; 17
	.db #0x11	; 17
	.db #0x11	; 17
	.db #0x11	; 17
	.db #0x11	; 17
	.db #0x11	; 17
	.db #0x11	; 17
	.db #0x11	; 17
	.db #0x11	; 17
	.db #0x11	; 17
	.db #0x11	; 17
	.db #0x11	; 17
	.db #0x11	; 17
	.db #0x11	; 17
	.db #0x11	; 17
	.db #0x11	; 17
	.db #0x11	; 17
	.db #0x11	; 17
	.db #0x11	; 17
	.db #0x11	; 17
	.db #0x11	; 17
	.db #0x11	; 17
	.db #0x11	; 17
	.db #0x11	; 17
	.db #0x11	; 17
	.db #0x11	; 17
	.db #0x11	; 17
	.db #0x11	; 17
	.db #0x11	; 17
	.db #0x11	; 17
	.db #0x11	; 17
	.db #0x11	; 17
	.db #0x11	; 17
	.db #0x11	; 17
	.db #0x11	; 17
	.db #0x11	; 17
	.db #0x11	; 17
	.db #0x11	; 17
	.db #0x11	; 17
	.db #0x11	; 17
	.db #0x11	; 17
	.db #0x11	; 17
	.db #0x11	; 17
	.db #0x11	; 17
	.db #0x11	; 17
	.db #0x11	; 17
	.db #0x11	; 17
	.db #0x11	; 17
	.db #0x11	; 17
	.db #0x11	; 17
	.db #0x11	; 17
	.db #0x11	; 17
	.db #0x11	; 17
	.db #0x11	; 17
	.db #0x11	; 17
	.db #0x11	; 17
	.db #0x11	; 17
	.db #0x11	; 17
	.db #0x11	; 17
	.db #0x11	; 17
	.db #0x11	; 17
	.db #0x11	; 17
	.db #0x11	; 17
	.db #0x11	; 17
	.db #0x11	; 17
	.db #0x11	; 17
	.db #0x11	; 17
	.db #0x11	; 17
	.db #0x11	; 17
	.db #0x11	; 17
	.db #0x11	; 17
	.db #0x11	; 17
	.db #0x11	; 17
	.db #0x11	; 17
	.db #0x11	; 17
	.db #0x11	; 17
	.db #0x11	; 17
	.db #0x11	; 17
	.db #0x11	; 17
	.db #0x11	; 17
	.db #0x11	; 17
	.db #0x11	; 17
	.db #0x11	; 17
	.db #0x11	; 17
	.db #0x11	; 17
	.db #0x11	; 17
	.db #0x11	; 17
	.db #0x11	; 17
	.db #0x11	; 17
	.db #0x11	; 17
	.db #0x11	; 17
	.db #0x11	; 17
	.db #0x11	; 17
	.db #0xba	; 186
	.db #0xba	; 186
	.db #0xba	; 186
	.db #0xba	; 186
	.db #0x1c	; 28
	.db #0x1c	; 28
	.db #0x21	; 33
	.db #0x11	; 17
	.db #0x11	; 17
	.db #0x11	; 17
	.db #0x11	; 17
	.db #0x11	; 17
	.db #0x11	; 17
	.db #0x11	; 17
	.db #0x11	; 17
	.db #0x11	; 17
	.db #0x11	; 17
	.db #0x11	; 17
	.db #0x11	; 17
	.db #0x11	; 17
	.db #0x11	; 17
	.db #0x11	; 17
	.db #0x11	; 17
	.db #0x11	; 17
	.db #0x11	; 17
	.db #0x11	; 17
	.db #0x11	; 17
	.db #0x11	; 17
	.db #0x11	; 17
	.db #0x11	; 17
	.db #0x11	; 17
	.db #0x11	; 17
	.db #0x11	; 17
	.db #0x11	; 17
	.db #0x11	; 17
	.db #0x11	; 17
	.db #0x11	; 17
	.db #0x11	; 17
	.db #0x11	; 17
	.db #0x11	; 17
	.db #0x11	; 17
	.db #0x11	; 17
	.db #0x11	; 17
	.db #0x11	; 17
	.db #0x11	; 17
	.db #0x11	; 17
	.db #0x11	; 17
	.db #0x11	; 17
	.db #0x11	; 17
	.db #0x11	; 17
	.db #0x11	; 17
	.db #0x11	; 17
	.db #0x11	; 17
	.db #0x11	; 17
	.db #0x11	; 17
	.db #0x11	; 17
	.db #0x11	; 17
	.db #0x11	; 17
	.db #0x11	; 17
	.db #0x11	; 17
	.db #0x11	; 17
	.db #0x11	; 17
	.db #0x11	; 17
	.db #0x11	; 17
	.db #0x11	; 17
	.db #0x11	; 17
	.db #0x11	; 17
	.db #0x11	; 17
	.db #0x11	; 17
	.db #0x11	; 17
	.db #0x11	; 17
	.db #0x11	; 17
	.db #0x11	; 17
	.db #0x11	; 17
	.db #0x11	; 17
	.db #0x11	; 17
	.db #0x11	; 17
	.db #0x11	; 17
	.db #0x11	; 17
	.db #0x11	; 17
	.db #0x11	; 17
	.db #0x11	; 17
	.db #0x11	; 17
	.db #0x11	; 17
	.db #0x11	; 17
	.db #0x11	; 17
	.db #0x11	; 17
	.db #0x11	; 17
	.db #0x11	; 17
	.db #0x11	; 17
	.db #0x11	; 17
	.db #0x11	; 17
	.db #0x11	; 17
	.db #0x11	; 17
	.db #0x11	; 17
	.db #0x11	; 17
	.db #0x11	; 17
	.db #0x11	; 17
	.db #0x11	; 17
	.db #0x11	; 17
	.db #0x11	; 17
	.db #0x11	; 17
	.db #0x11	; 17
	.db #0x11	; 17
	.db #0x11	; 17
	.db #0x11	; 17
	.db #0x11	; 17
	.db #0x11	; 17
	.db #0x11	; 17
	.db #0x11	; 17
	.db #0x11	; 17
	.db #0x11	; 17
	.db #0x11	; 17
	.db #0x11	; 17
	.db #0x11	; 17
	.db #0x11	; 17
	.db #0x11	; 17
	.db #0x11	; 17
	.db #0x11	; 17
	.db #0x11	; 17
	.db #0x11	; 17
	.db #0x11	; 17
	.db #0x11	; 17
	.db #0x11	; 17
	.db #0x11	; 17
	.db #0x11	; 17
	.db #0x11	; 17
	.db #0x11	; 17
	.db #0x11	; 17
	.db #0x11	; 17
	.db #0x11	; 17
	.db #0x11	; 17
	.db #0x11	; 17
	.db #0x11	; 17
	.db #0x11	; 17
	.db #0x11	; 17
	.db #0x11	; 17
	.db #0x11	; 17
	.db #0x11	; 17
	.db #0x11	; 17
	.db #0x11	; 17
	.db #0x11	; 17
	.db #0x11	; 17
	.db #0x11	; 17
	.db #0x11	; 17
	.db #0x11	; 17
	.db #0x11	; 17
	.db #0x11	; 17
	.db #0x11	; 17
	.db #0x11	; 17
	.db #0x11	; 17
	.db #0x11	; 17
	.db #0x11	; 17
	.db #0x11	; 17
	.db #0x11	; 17
	.db #0x11	; 17
	.db #0x11	; 17
	.db #0x11	; 17
	.db #0x11	; 17
	.db #0x11	; 17
	.db #0x11	; 17
	.db #0x11	; 17
	.db #0x11	; 17
	.db #0x11	; 17
	.db #0x11	; 17
	.db #0x11	; 17
	.db #0x11	; 17
	.db #0x11	; 17
	.db #0x11	; 17
	.db #0x11	; 17
	.db #0x11	; 17
	.db #0x11	; 17
	.db #0x11	; 17
	.db #0x11	; 17
	.db #0x11	; 17
	.db #0x11	; 17
	.db #0x11	; 17
	.db #0x11	; 17
	.db #0x11	; 17
	.db #0x11	; 17
	.db #0x11	; 17
	.db #0x11	; 17
	.db #0x11	; 17
	.db #0x11	; 17
	.db #0x11	; 17
	.db #0x11	; 17
	.db #0x11	; 17
	.db #0x11	; 17
	.db #0x11	; 17
	.db #0x11	; 17
	.db #0x11	; 17
	.db #0x11	; 17
	.db #0x11	; 17
	.db #0x11	; 17
	.db #0x11	; 17
	.db #0x11	; 17
	.db #0x11	; 17
	.db #0x11	; 17
	.db #0x11	; 17
	.db #0x11	; 17
	.db #0x11	; 17
	.db #0x11	; 17
	.db #0x11	; 17
	.db #0x11	; 17
	.db #0x11	; 17
	.db #0x11	; 17
	.db #0x11	; 17
	.db #0x11	; 17
	.db #0x11	; 17
	.db #0x11	; 17
	.db #0x11	; 17
	.db #0x11	; 17
	.db #0x11	; 17
	.db #0x11	; 17
	.db #0x11	; 17
	.db #0x11	; 17
	.db #0x11	; 17
	.db #0x11	; 17
	.db #0x11	; 17
	.db #0x11	; 17
	.db #0x11	; 17
	.db #0x11	; 17
	.db #0x11	; 17
	.db #0x11	; 17
	.db #0x11	; 17
	.db #0x11	; 17
	.db #0x11	; 17
	.db #0x11	; 17
	.db #0x11	; 17
	.db #0x11	; 17
	.db #0x11	; 17
	.db #0x11	; 17
	.db #0x11	; 17
	.db #0x11	; 17
	.db #0x11	; 17
	.db #0x11	; 17
	.db #0x11	; 17
	.db #0x11	; 17
	.db #0x11	; 17
	.db #0x11	; 17
	.db #0x11	; 17
	.db #0x11	; 17
	.db #0x11	; 17
	.db #0x11	; 17
	.db #0x11	; 17
	.db #0x11	; 17
	.db #0x11	; 17
	.db #0x11	; 17
	.db #0x11	; 17
	.db #0x11	; 17
	.db #0x11	; 17
	.db #0x11	; 17
	.db #0x11	; 17
	.db #0x11	; 17
	.db #0x11	; 17
	.db #0x11	; 17
	G$HALT$0$0	= .
	.globl	G$HALT$0$0
	C$main.c$21$1_0$106	= .
	.globl	C$main.c$21$1_0$106
;main.c:21: void HALT()
;	---------------------------------
; Function HALT
; ---------------------------------
_HALT::
	C$main.c$23$1_0$106	= .
	.globl	C$main.c$23$1_0$106
;main.c:23: while(1) {
00102$:
	C$main.c$24$2_0$107	= .
	.globl	C$main.c$24$2_0$107
;main.c:24: __asm__ ("halt"); 
	halt
	C$main.c$26$1_0$106	= .
	.globl	C$main.c$26$1_0$106
;main.c:26: }
	C$main.c$26$1_0$106	= .
	.globl	C$main.c$26$1_0$106
	XG$HALT$0$0	= .
	.globl	XG$HALT$0$0
	jr	00102$
	G$UBOX_FATAL$0$0	= .
	.globl	G$UBOX_FATAL$0$0
	C$main.c$28$1_0$109	= .
	.globl	C$main.c$28$1_0$109
;main.c:28: void UBOX_FATAL(const char* message, int line_number)
;	---------------------------------
; Function UBOX_FATAL
; ---------------------------------
_UBOX_FATAL::
	ld	hl, #-516
	add	hl, sp
	ld	sp, hl
	C$main.c$33$1_0$109	= .
	.globl	C$main.c$33$1_0$109
;main.c:33: strcpy(fileName, __FILE__);
	ld	hl, #0
	add	hl, sp
	ex	de, hl
	ld	c, e
	ld	b, d
	push	de
	ld	e, c
	ld	d, b
	ld	hl, #___str_0
	xor	a, a
00118$:
	cp	a, (hl)
	ldi
	jr	NZ, 00118$
	pop	de
	C$main.c$34$2_0$110	= .
	.globl	C$main.c$34$2_0$110
;main.c:34: for(int i = 0; i < strlen(fileName); i++)
	ld	iy, #512
	add	iy, sp
	ld	0 (iy), e
	ld	1 (iy), d
	xor	a, a
	inc	iy
	inc	iy
	ld	0 (iy), a
	ld	1 (iy), a
00103$:
	ld	hl, #512
	add	hl, sp
	ld	c, (hl)
	inc	hl
	ld	b, (hl)
	push	bc
	call	_strlen
	pop	af
	ld	iy, #514
	add	iy, sp
	ld	a, 0 (iy)
	ld	b, 1 (iy)
	sub	a, l
	ld	a, b
	sbc	a, h
	jr	NC,00101$
	C$main.c$36$3_0$111	= .
	.globl	C$main.c$36$3_0$111
;main.c:36: fileName[i] = (char)toupper((fileName[i]));
	ld	a, e
	ld	hl, #514
	add	hl, sp
	add	a, (hl)
	ld	c, a
	ld	a, d
	inc	hl
	adc	a, (hl)
	ld	b, a
	ld	a, (bc)
	ld	l, a
	rla
	sbc	a, a
	ld	h, a
	push	bc
	push	de
	push	hl
	call	_toupper
	pop	af
	pop	de
	pop	bc
	ld	a, l
	ld	(bc), a
	C$main.c$34$2_0$110	= .
	.globl	C$main.c$34$2_0$110
;main.c:34: for(int i = 0; i < strlen(fileName); i++)
	ld	iy, #514
	add	iy, sp
	inc	0 (iy)
	jr	NZ,00103$
	inc	1 (iy)
	jr	00103$
00101$:
	C$main.c$39$1_0$109	= .
	.globl	C$main.c$39$1_0$109
;main.c:39: sprintf(error_message, "%s %d %s", fileName, line_number, message);
	ld	hl, #256
	add	hl, sp
	ld	iy, #514
	add	iy, sp
	ld	0 (iy), l
	ld	1 (iy), h
	push	hl
	ld	iy, #520
	add	iy, sp
	ld	c, 0 (iy)
	ld	b, 1 (iy)
	push	bc
	inc	iy
	inc	iy
	ld	c, 0 (iy)
	ld	b, 1 (iy)
	push	bc
	push	de
	ld	bc, #___str_1
	push	bc
	ld	hl, #524
	add	hl, sp
	ld	c, (hl)
	inc	hl
	ld	b, (hl)
	push	bc
	call	_sprintf
	ld	hl, #10
	add	hl, sp
	ld	sp, hl
	xor	a, a
	push	af
	inc	sp
	xor	a, a
	push	af
	inc	sp
	call	_put_text
	pop	af
	pop	af
	C$main.c$42$1_0$109	= .
	.globl	C$main.c$42$1_0$109
;main.c:42: }
	ld	hl, #516
	add	hl, sp
	ld	sp, hl
	C$main.c$42$1_0$109	= .
	.globl	C$main.c$42$1_0$109
	XG$UBOX_FATAL$0$0	= .
	.globl	XG$UBOX_FATAL$0$0
	ret
Fmain$__str_0$0_0$0 == .
___str_0:
	.ascii "main.c"
	.db 0x00
Fmain$__str_1$0_0$0 == .
___str_1:
	.ascii "%s %d %s"
	.db 0x00
	G$main$0$0	= .
	.globl	G$main$0$0
	C$main.c$44$1_0$112	= .
	.globl	C$main.c$44$1_0$112
;main.c:44: void main()
;	---------------------------------
; Function main
; ---------------------------------
_main::
	C$main.c$47$1_0$112	= .
	.globl	C$main.c$47$1_0$112
;main.c:47: ubox_init_isr(2);
	ld	l, #0x02
	call	_ubox_init_isr
	C$main.c$49$1_0$112	= .
	.globl	C$main.c$49$1_0$112
;main.c:49: ubox_set_mode(2);
	ld	l, #0x02
	call	_ubox_set_mode
	C$main.c$51$1_0$112	= .
	.globl	C$main.c$51$1_0$112
;main.c:51: ubox_set_colors(1, 1, 1);
	ld	de, #0x0101
	push	de
	ld	a, #0x01
	push	af
	inc	sp
	call	_ubox_set_colors
	pop	af
	inc	sp
	C$main.c$53$1_0$112	= .
	.globl	C$main.c$53$1_0$112
;main.c:53: ubox_disable_screen();
	call	_ubox_disable_screen
	C$main.c$55$1_0$112	= .
	.globl	C$main.c$55$1_0$112
;main.c:55: ubox_set_tiles(tiles);
	ld	hl, #_tiles
	call	_ubox_set_tiles
	C$main.c$56$1_0$112	= .
	.globl	C$main.c$56$1_0$112
;main.c:56: ubox_set_tiles_colors(tiles_colors);
	ld	hl, #_tiles_colors
	call	_ubox_set_tiles_colors
	C$main.c$58$1_0$112	= .
	.globl	C$main.c$58$1_0$112
;main.c:58: ubox_enable_screen();
	call	_ubox_enable_screen
	C$main.c$60$1_0$112	= .
	.globl	C$main.c$60$1_0$112
;main.c:60: ubox_fill_screen(WHITESPACE_TILE);
	ld	l, #0x81
	call	_ubox_fill_screen
	C$main.c$62$1_1$113	= .
	.globl	C$main.c$62$1_1$113
;main.c:62: char* data = malloc(1000000);
	ld	hl, #0x4240
	push	hl
	call	_malloc
	pop	af
	ld	a, h
	C$main.c$64$1_1$113	= .
	.globl	C$main.c$64$1_1$113
;main.c:64: if(data == 0)
	or	a, l
	jr	NZ,00104$
	C$main.c$66$2_1$114	= .
	.globl	C$main.c$66$2_1$114
;main.c:66: UBOX_FATAL("DATA IS NULL", __LINE__);
	ld	hl, #0x0042
	push	hl
	ld	hl, #___str_2
	push	hl
	call	_UBOX_FATAL
	pop	af
	C$main.c$67$2_1$114	= .
	.globl	C$main.c$67$2_1$114
;main.c:67: UBOX_FATAL("NOT PRINTED!!", __LINE__);
	ld	hl, #0x0043
	ex	(sp),hl
	ld	hl, #___str_3
	push	hl
	call	_UBOX_FATAL
	pop	af
	pop	af
	C$main.c$70$1_1$113	= .
	.globl	C$main.c$70$1_1$113
;main.c:70: while (1)
00104$:
	C$main.c$72$2_1$115	= .
	.globl	C$main.c$72$2_1$115
;main.c:72: ubox_wait();
	call	_ubox_wait
	C$main.c$74$1_1$112	= .
	.globl	C$main.c$74$1_1$112
;main.c:74: }
	C$main.c$74$1_1$112	= .
	.globl	C$main.c$74$1_1$112
	XG$main$0$0	= .
	.globl	XG$main$0$0
	jr	00104$
Fmain$__str_2$0_0$0 == .
___str_2:
	.ascii "DATA IS NULL"
	.db 0x00
Fmain$__str_3$0_0$0 == .
___str_3:
	.ascii "NOT PRINTED!!"
	.db 0x00
	.area _CODE
	.area _INITIALIZER
	.area _CABS (ABS)
