;--------------------------------------------------------
; File Created by SDCC : free open source ANSI-C Compiler
; Version 4.0.0 #11528 (Linux)
;--------------------------------------------------------
	.module main
	.optsdcc -mz80
	
;--------------------------------------------------------
; Public variables in this module
;--------------------------------------------------------
	.globl _main
	.globl _put_text
	.globl _mplayer_play_effect_p
	.globl _mplayer_play
	.globl _mplayer_init_effects
	.globl _mplayer_init
	.globl _ubox_read_keys
	.globl _ubox_wait
	.globl _ubox_set_user_isr
	.globl _ubox_init_isr
	.globl _ubox_fill_screen
	.globl _ubox_put_tile
	.globl _ubox_set_tiles_colors
	.globl _ubox_set_tiles
	.globl _ubox_set_colors
	.globl _ubox_disable_screen
	.globl _ubox_enable_screen
	.globl _ubox_set_mode
	.globl _tiles_colors
	.globl _tiles
;--------------------------------------------------------
; special function registers
;--------------------------------------------------------
;--------------------------------------------------------
; ram data
;--------------------------------------------------------
	.area _DATA
;--------------------------------------------------------
; ram data
;--------------------------------------------------------
	.area _INITIALIZED
;--------------------------------------------------------
; absolute external ram data
;--------------------------------------------------------
	.area _DABS (ABS)
;--------------------------------------------------------
; global & static initialisations
;--------------------------------------------------------
	.area _HOME
	.area _GSINIT
	.area _GSFINAL
	.area _GSINIT
;--------------------------------------------------------
; Home
;--------------------------------------------------------
	.area _HOME
	.area _HOME
;--------------------------------------------------------
; code
;--------------------------------------------------------
	.area _CODE
	G$put_text$0$0	= .
	.globl	G$put_text$0$0
	C$main.c$25$0_0$29	= .
	.globl	C$main.c$25$0_0$29
;main.c:25: void put_text(uint8_t x, uint8_t y, const uint8_t *text)
;	---------------------------------
; Function put_text
; ---------------------------------
_put_text::
	C$main.c$27$1_0$29	= .
	.globl	C$main.c$27$1_0$29
;main.c:27: while (*text)
	ld	iy, #4
	add	iy, sp
	ld	c, 0 (iy)
	ld	b, 1 (iy)
	dec	iy
	dec	iy
	ld	e, 0 (iy)
00101$:
	ld	a, (bc)
	or	a, a
	ret	Z
	C$main.c$28$1_0$29	= .
	.globl	C$main.c$28$1_0$29
;main.c:28: ubox_put_tile(x++, y, *text++ + 128 - 31);
	inc	bc
	add	a, #0x61
	ld	h, a
	ld	d, e
	inc	e
	ld	iy, #2
	add	iy, sp
	ld	0 (iy), e
	push	bc
	push	de
	push	hl
	inc	sp
	inc	iy
	ld	a, 0 (iy)
	push	af
	inc	sp
	push	de
	inc	sp
	call	_ubox_put_tile
	pop	af
	inc	sp
	pop	de
	pop	bc
	C$main.c$29$1_0$29	= .
	.globl	C$main.c$29$1_0$29
;main.c:29: }
	C$main.c$29$1_0$29	= .
	.globl	C$main.c$29$1_0$29
	XG$put_text$0$0	= .
	.globl	XG$put_text$0$0
	jr	00101$
G$tiles$0_0$0 == .
_tiles:
	.db #0x00	; 0
	.db #0x00	; 0
	.db #0x00	; 0
	.db #0x00	; 0
	.db #0x00	; 0
	.db #0x00	; 0
	.db #0x00	; 0
	.db #0x00	; 0
	.db #0x00	; 0
	.db #0x00	; 0
	.db #0x00	; 0
	.db #0x00	; 0
	.db #0x00	; 0
	.db #0x00	; 0
	.db #0x00	; 0
	.db #0x00	; 0
	.db #0x00	; 0
	.db #0x00	; 0
	.db #0x00	; 0
	.db #0x00	; 0
	.db #0x00	; 0
	.db #0x00	; 0
	.db #0x00	; 0
	.db #0x00	; 0
	.db #0x00	; 0
	.db #0x00	; 0
	.db #0x00	; 0
	.db #0x00	; 0
	.db #0x00	; 0
	.db #0x00	; 0
	.db #0x00	; 0
	.db #0x00	; 0
	.db #0x00	; 0
	.db #0x00	; 0
	.db #0x00	; 0
	.db #0x00	; 0
	.db #0x00	; 0
	.db #0x00	; 0
	.db #0x00	; 0
	.db #0x00	; 0
	.db #0xaa	; 170
	.db #0xd5	; 213
	.db #0x00	; 0
	.db #0x00	; 0
	.db #0xd5	; 213
	.db #0xaa	; 170
	.db #0x00	; 0
	.db #0x00	; 0
	.db #0xaa	; 170
	.db #0x56	; 86	'V'
	.db #0xfe	; 254
	.db #0xfe	; 254
	.db #0x56	; 86	'V'
	.db #0xaa	; 170
	.db #0x00	; 0
	.db #0x00	; 0
	.db #0x24	; 36
	.db #0x48	; 72	'H'
	.db #0x90	; 144
	.db #0x20	; 32
	.db #0x40	; 64
	.db #0x80	; 128
	.db #0x00	; 0
	.db #0x00	; 0
	.db #0x01	; 1
	.db #0x03	; 3
	.db #0x05	; 5
	.db #0x09	; 9
	.db #0x13	; 19
	.db #0x25	; 37
	.db #0x49	; 73	'I'
	.db #0x00	; 0
	.db #0x20	; 32
	.db #0x10	; 16
	.db #0x20	; 32
	.db #0x10	; 16
	.db #0x20	; 32
	.db #0x10	; 16
	.db #0x00	; 0
	.db #0x00	; 0
	.db #0x11	; 17
	.db #0x09	; 9
	.db #0x11	; 17
	.db #0x09	; 9
	.db #0x11	; 17
	.db #0x09	; 9
	.db #0x00	; 0
	.db #0x00	; 0
	.db #0x00	; 0
	.db #0x00	; 0
	.db #0x00	; 0
	.db #0x00	; 0
	.db #0x00	; 0
	.db #0x00	; 0
	.db #0x00	; 0
	.db #0x00	; 0
	.db #0x00	; 0
	.db #0x55	; 85	'U'
	.db #0x00	; 0
	.db #0x00	; 0
	.db #0x00	; 0
	.db #0x00	; 0
	.db #0x00	; 0
	.db #0x00	; 0
	.db #0x00	; 0
	.db #0x55	; 85	'U'
	.db #0x00	; 0
	.db #0x7f	; 127
	.db #0x00	; 0
	.db #0x7f	; 127
	.db #0x00	; 0
	.db #0x00	; 0
	.db #0x7f	; 127
	.db #0x00	; 0
	.db #0x7f	; 127
	.db #0x00	; 0
	.db #0x7f	; 127
	.db #0x00	; 0
	.db #0x7f	; 127
	.db #0x00	; 0
	.db #0xfd	; 253
	.db #0x00	; 0
	.db #0xfd	; 253
	.db #0x00	; 0
	.db #0xfd	; 253
	.db #0x00	; 0
	.db #0xfd	; 253
	.db #0x00	; 0
	.db #0x00	; 0
	.db #0x00	; 0
	.db #0x00	; 0
	.db #0x00	; 0
	.db #0x00	; 0
	.db #0x00	; 0
	.db #0x00	; 0
	.db #0x00	; 0
	.db #0x00	; 0
	.db #0x00	; 0
	.db #0x00	; 0
	.db #0x00	; 0
	.db #0x00	; 0
	.db #0x00	; 0
	.db #0x00	; 0
	.db #0x00	; 0
	.db #0x00	; 0
	.db #0x00	; 0
	.db #0x00	; 0
	.db #0x00	; 0
	.db #0x00	; 0
	.db #0x00	; 0
	.db #0x00	; 0
	.db #0x00	; 0
	.db #0x00	; 0
	.db #0x00	; 0
	.db #0x00	; 0
	.db #0x00	; 0
	.db #0x00	; 0
	.db #0x00	; 0
	.db #0x00	; 0
	.db #0x00	; 0
	.db #0x00	; 0
	.db #0x00	; 0
	.db #0x00	; 0
	.db #0x00	; 0
	.db #0x00	; 0
	.db #0x00	; 0
	.db #0x00	; 0
	.db #0x00	; 0
	.db #0x00	; 0
	.db #0x00	; 0
	.db #0x00	; 0
	.db #0x00	; 0
	.db #0x00	; 0
	.db #0x00	; 0
	.db #0x00	; 0
	.db #0x00	; 0
	.db #0x00	; 0
	.db #0x00	; 0
	.db #0x00	; 0
	.db #0x00	; 0
	.db #0x00	; 0
	.db #0x00	; 0
	.db #0x00	; 0
	.db #0x00	; 0
	.db #0x00	; 0
	.db #0x00	; 0
	.db #0x00	; 0
	.db #0x00	; 0
	.db #0x00	; 0
	.db #0x00	; 0
	.db #0x00	; 0
	.db #0x00	; 0
	.db #0x00	; 0
	.db #0x00	; 0
	.db #0x00	; 0
	.db #0x00	; 0
	.db #0x00	; 0
	.db #0x00	; 0
	.db #0x00	; 0
	.db #0x00	; 0
	.db #0x00	; 0
	.db #0x00	; 0
	.db #0x00	; 0
	.db #0x00	; 0
	.db #0x00	; 0
	.db #0x00	; 0
	.db #0x00	; 0
	.db #0x00	; 0
	.db #0x00	; 0
	.db #0x00	; 0
	.db #0x00	; 0
	.db #0x00	; 0
	.db #0x00	; 0
	.db #0x00	; 0
	.db #0x00	; 0
	.db #0x00	; 0
	.db #0x00	; 0
	.db #0x00	; 0
	.db #0x00	; 0
	.db #0x00	; 0
	.db #0x00	; 0
	.db #0x00	; 0
	.db #0x00	; 0
	.db #0x00	; 0
	.db #0x00	; 0
	.db #0x00	; 0
	.db #0x00	; 0
	.db #0x00	; 0
	.db #0x00	; 0
	.db #0x00	; 0
	.db #0x00	; 0
	.db #0x00	; 0
	.db #0x00	; 0
	.db #0x00	; 0
	.db #0x00	; 0
	.db #0x00	; 0
	.db #0x00	; 0
	.db #0x00	; 0
	.db #0x00	; 0
	.db #0x00	; 0
	.db #0x00	; 0
	.db #0x00	; 0
	.db #0x00	; 0
	.db #0x00	; 0
	.db #0x00	; 0
	.db #0x00	; 0
	.db #0x00	; 0
	.db #0x00	; 0
	.db #0x00	; 0
	.db #0x00	; 0
	.db #0x00	; 0
	.db #0x00	; 0
	.db #0x00	; 0
	.db #0x00	; 0
	.db #0x00	; 0
	.db #0x00	; 0
	.db #0x00	; 0
	.db #0x00	; 0
	.db #0x00	; 0
	.db #0x01	; 1
	.db #0x07	; 7
	.db #0x0f	; 15
	.db #0x1f	; 31
	.db #0x1e	; 30
	.db #0x00	; 0
	.db #0x00	; 0
	.db #0x00	; 0
	.db #0xf8	; 248
	.db #0xfe	; 254
	.db #0x00	; 0
	.db #0x0f	; 15
	.db #0x07	; 7
	.db #0x00	; 0
	.db #0x00	; 0
	.db #0x00	; 0
	.db #0x0f	; 15
	.db #0x0f	; 15
	.db #0x0f	; 15
	.db #0x0f	; 15
	.db #0x8e	; 142
	.db #0x00	; 0
	.db #0x00	; 0
	.db #0x00	; 0
	.db #0xfc	; 252
	.db #0x00	; 0
	.db #0x00	; 0
	.db #0x07	; 7
	.db #0x07	; 7
	.db #0x00	; 0
	.db #0x00	; 0
	.db #0x00	; 0
	.db #0x0f	; 15
	.db #0x0f	; 15
	.db #0x0f	; 15
	.db #0x8f	; 143
	.db #0x8e	; 142
	.db #0x00	; 0
	.db #0x00	; 0
	.db #0x00	; 0
	.db #0x00	; 0
	.db #0x00	; 0
	.db #0x00	; 0
	.db #0x00	; 0
	.db #0x00	; 0
	.db #0x00	; 0
	.db #0x00	; 0
	.db #0x00	; 0
	.db #0x3f	; 63
	.db #0x3f	; 63
	.db #0x3f	; 63
	.db #0x3c	; 60
	.db #0x38	; 56	'8'
	.db #0x00	; 0
	.db #0x00	; 0
	.db #0x00	; 0
	.db #0xfc	; 252
	.db #0xfc	; 252
	.db #0xfc	; 252
	.db #0x00	; 0
	.db #0x00	; 0
	.db #0x00	; 0
	.db #0x00	; 0
	.db #0x00	; 0
	.db #0xf0	; 240
	.db #0xf8	; 248
	.db #0xf8	; 248
	.db #0xfc	; 252
	.db #0xfc	; 252
	.db #0x00	; 0
	.db #0x00	; 0
	.db #0x00	; 0
	.db #0x1e	; 30
	.db #0x1e	; 30
	.db #0x1e	; 30
	.db #0x1c	; 28
	.db #0x1c	; 28
	.db #0x00	; 0
	.db #0x00	; 0
	.db #0x00	; 0
	.db #0x00	; 0
	.db #0x00	; 0
	.db #0x00	; 0
	.db #0x00	; 0
	.db #0x00	; 0
	.db #0x00	; 0
	.db #0x00	; 0
	.db #0x00	; 0
	.db #0x00	; 0
	.db #0x00	; 0
	.db #0x00	; 0
	.db #0x00	; 0
	.db #0x00	; 0
	.db #0x00	; 0
	.db #0x00	; 0
	.db #0x00	; 0
	.db #0x00	; 0
	.db #0x00	; 0
	.db #0x00	; 0
	.db #0x00	; 0
	.db #0x00	; 0
	.db #0x00	; 0
	.db #0x00	; 0
	.db #0x00	; 0
	.db #0x00	; 0
	.db #0x00	; 0
	.db #0x00	; 0
	.db #0x00	; 0
	.db #0x00	; 0
	.db #0x00	; 0
	.db #0x00	; 0
	.db #0x00	; 0
	.db #0x00	; 0
	.db #0x00	; 0
	.db #0x00	; 0
	.db #0x00	; 0
	.db #0x00	; 0
	.db #0x00	; 0
	.db #0x00	; 0
	.db #0x00	; 0
	.db #0x00	; 0
	.db #0x00	; 0
	.db #0x00	; 0
	.db #0x00	; 0
	.db #0x00	; 0
	.db #0x00	; 0
	.db #0x00	; 0
	.db #0x00	; 0
	.db #0x00	; 0
	.db #0x00	; 0
	.db #0x00	; 0
	.db #0x00	; 0
	.db #0x00	; 0
	.db #0x00	; 0
	.db #0x00	; 0
	.db #0x00	; 0
	.db #0x00	; 0
	.db #0x00	; 0
	.db #0x00	; 0
	.db #0x00	; 0
	.db #0x00	; 0
	.db #0x00	; 0
	.db #0x00	; 0
	.db #0x00	; 0
	.db #0x00	; 0
	.db #0x00	; 0
	.db #0x00	; 0
	.db #0x00	; 0
	.db #0x00	; 0
	.db #0x00	; 0
	.db #0x00	; 0
	.db #0x00	; 0
	.db #0x00	; 0
	.db #0x00	; 0
	.db #0x00	; 0
	.db #0x00	; 0
	.db #0x00	; 0
	.db #0x00	; 0
	.db #0x00	; 0
	.db #0x00	; 0
	.db #0x00	; 0
	.db #0x00	; 0
	.db #0x00	; 0
	.db #0x00	; 0
	.db #0x00	; 0
	.db #0x00	; 0
	.db #0x00	; 0
	.db #0x00	; 0
	.db #0x00	; 0
	.db #0x00	; 0
	.db #0x00	; 0
	.db #0x00	; 0
	.db #0x00	; 0
	.db #0x00	; 0
	.db #0x00	; 0
	.db #0x00	; 0
	.db #0x00	; 0
	.db #0x00	; 0
	.db #0x00	; 0
	.db #0x00	; 0
	.db #0x00	; 0
	.db #0x00	; 0
	.db #0x00	; 0
	.db #0x00	; 0
	.db #0x00	; 0
	.db #0x00	; 0
	.db #0x00	; 0
	.db #0x00	; 0
	.db #0x00	; 0
	.db #0x00	; 0
	.db #0x00	; 0
	.db #0x00	; 0
	.db #0x00	; 0
	.db #0x00	; 0
	.db #0x00	; 0
	.db #0x00	; 0
	.db #0x00	; 0
	.db #0x00	; 0
	.db #0x00	; 0
	.db #0x00	; 0
	.db #0x00	; 0
	.db #0x00	; 0
	.db #0x00	; 0
	.db #0x00	; 0
	.db #0x00	; 0
	.db #0x00	; 0
	.db #0x00	; 0
	.db #0x00	; 0
	.db #0x00	; 0
	.db #0x00	; 0
	.db #0x00	; 0
	.db #0x00	; 0
	.db #0x00	; 0
	.db #0x00	; 0
	.db #0x00	; 0
	.db #0x00	; 0
	.db #0x00	; 0
	.db #0x00	; 0
	.db #0x00	; 0
	.db #0x00	; 0
	.db #0x00	; 0
	.db #0x00	; 0
	.db #0x00	; 0
	.db #0x00	; 0
	.db #0x00	; 0
	.db #0x00	; 0
	.db #0x00	; 0
	.db #0x00	; 0
	.db #0x00	; 0
	.db #0x00	; 0
	.db #0x00	; 0
	.db #0x00	; 0
	.db #0x00	; 0
	.db #0x00	; 0
	.db #0x00	; 0
	.db #0x00	; 0
	.db #0x00	; 0
	.db #0x00	; 0
	.db #0x00	; 0
	.db #0x00	; 0
	.db #0x00	; 0
	.db #0x00	; 0
	.db #0x00	; 0
	.db #0x00	; 0
	.db #0x00	; 0
	.db #0x00	; 0
	.db #0x00	; 0
	.db #0x00	; 0
	.db #0x00	; 0
	.db #0x00	; 0
	.db #0x00	; 0
	.db #0x00	; 0
	.db #0x00	; 0
	.db #0x3c	; 60
	.db #0x3c	; 60
	.db #0x3c	; 60
	.db #0x78	; 120	'x'
	.db #0x78	; 120	'x'
	.db #0x78	; 120	'x'
	.db #0x78	; 120	'x'
	.db #0x78	; 120	'x'
	.db #0x07	; 7
	.db #0x00	; 0
	.db #0x00	; 0
	.db #0x7f	; 127
	.db #0x7f	; 127
	.db #0x7f	; 127
	.db #0x0f	; 15
	.db #0x0e	; 14
	.db #0x9e	; 158
	.db #0x1e	; 30
	.db #0x1e	; 30
	.db #0x1f	; 31
	.db #0x1f	; 31
	.db #0x1f	; 31
	.db #0x3c	; 60
	.db #0x3c	; 60
	.db #0x07	; 7
	.db #0x07	; 7
	.db #0x0f	; 15
	.db #0xfe	; 254
	.db #0xfc	; 252
	.db #0xf8	; 248
	.db #0x78	; 120	'x'
	.db #0x3c	; 60
	.db #0x9e	; 158
	.db #0x9e	; 158
	.db #0x1f	; 31
	.db #0x1f	; 31
	.db #0x1f	; 31
	.db #0x1c	; 28
	.db #0x3c	; 60
	.db #0x3c	; 60
	.db #0x00	; 0
	.db #0x00	; 0
	.db #0xfc	; 252
	.db #0xfc	; 252
	.db #0xfc	; 252
	.db #0x00	; 0
	.db #0x00	; 0
	.db #0x00	; 0
	.db #0x78	; 120	'x'
	.db #0x78	; 120	'x'
	.db #0x7f	; 127
	.db #0x7f	; 127
	.db #0x7f	; 127
	.db #0x70	; 112	'p'
	.db #0xf0	; 240
	.db #0xf0	; 240
	.db #0x01	; 1
	.db #0x01	; 1
	.db #0xf1	; 241
	.db #0xf1	; 241
	.db #0xf1	; 241
	.db #0x01	; 1
	.db #0x03	; 3
	.db #0x03	; 3
	.db #0xfc	; 252
	.db #0xfe	; 254
	.db #0xee	; 238
	.db #0xef	; 239
	.db #0xe7	; 231
	.db #0xc7	; 199
	.db #0xc7	; 199
	.db #0xc3	; 195
	.db #0x3c	; 60
	.db #0x3c	; 60
	.db #0x3c	; 60
	.db #0x3c	; 60
	.db #0x38	; 56	'8'
	.db #0xf8	; 248
	.db #0xf8	; 248
	.db #0xf8	; 248
	.db #0x00	; 0
	.db #0x00	; 0
	.db #0x00	; 0
	.db #0x00	; 0
	.db #0x00	; 0
	.db #0x00	; 0
	.db #0x00	; 0
	.db #0x00	; 0
	.db #0x00	; 0
	.db #0x00	; 0
	.db #0x00	; 0
	.db #0x00	; 0
	.db #0x00	; 0
	.db #0x00	; 0
	.db #0x00	; 0
	.db #0x00	; 0
	.db #0x00	; 0
	.db #0x00	; 0
	.db #0x00	; 0
	.db #0x00	; 0
	.db #0x00	; 0
	.db #0x00	; 0
	.db #0x00	; 0
	.db #0x00	; 0
	.db #0x00	; 0
	.db #0x00	; 0
	.db #0x00	; 0
	.db #0x00	; 0
	.db #0x00	; 0
	.db #0x00	; 0
	.db #0x00	; 0
	.db #0x00	; 0
	.db #0x00	; 0
	.db #0x00	; 0
	.db #0x00	; 0
	.db #0x00	; 0
	.db #0x00	; 0
	.db #0x00	; 0
	.db #0x00	; 0
	.db #0x00	; 0
	.db #0x00	; 0
	.db #0x00	; 0
	.db #0x00	; 0
	.db #0x00	; 0
	.db #0x00	; 0
	.db #0x00	; 0
	.db #0x00	; 0
	.db #0x00	; 0
	.db #0x00	; 0
	.db #0x00	; 0
	.db #0x00	; 0
	.db #0x00	; 0
	.db #0x00	; 0
	.db #0x00	; 0
	.db #0x00	; 0
	.db #0x00	; 0
	.db #0x00	; 0
	.db #0x00	; 0
	.db #0x00	; 0
	.db #0x00	; 0
	.db #0x00	; 0
	.db #0x00	; 0
	.db #0x00	; 0
	.db #0x00	; 0
	.db #0x00	; 0
	.db #0x00	; 0
	.db #0x00	; 0
	.db #0x00	; 0
	.db #0x00	; 0
	.db #0x00	; 0
	.db #0x00	; 0
	.db #0x00	; 0
	.db #0x00	; 0
	.db #0x00	; 0
	.db #0x00	; 0
	.db #0x00	; 0
	.db #0x00	; 0
	.db #0x00	; 0
	.db #0x00	; 0
	.db #0x00	; 0
	.db #0x00	; 0
	.db #0x00	; 0
	.db #0x00	; 0
	.db #0x00	; 0
	.db #0x00	; 0
	.db #0x00	; 0
	.db #0x00	; 0
	.db #0x00	; 0
	.db #0x00	; 0
	.db #0x00	; 0
	.db #0x00	; 0
	.db #0x00	; 0
	.db #0x00	; 0
	.db #0x00	; 0
	.db #0x00	; 0
	.db #0x00	; 0
	.db #0x00	; 0
	.db #0x00	; 0
	.db #0x00	; 0
	.db #0x00	; 0
	.db #0x00	; 0
	.db #0x00	; 0
	.db #0x00	; 0
	.db #0x00	; 0
	.db #0x00	; 0
	.db #0x00	; 0
	.db #0x00	; 0
	.db #0x00	; 0
	.db #0x00	; 0
	.db #0x00	; 0
	.db #0x00	; 0
	.db #0x00	; 0
	.db #0x00	; 0
	.db #0x00	; 0
	.db #0x00	; 0
	.db #0x00	; 0
	.db #0x00	; 0
	.db #0x00	; 0
	.db #0x00	; 0
	.db #0x00	; 0
	.db #0x00	; 0
	.db #0x00	; 0
	.db #0x00	; 0
	.db #0x00	; 0
	.db #0x00	; 0
	.db #0x00	; 0
	.db #0x00	; 0
	.db #0x00	; 0
	.db #0x00	; 0
	.db #0x00	; 0
	.db #0x00	; 0
	.db #0x00	; 0
	.db #0x00	; 0
	.db #0x00	; 0
	.db #0x00	; 0
	.db #0x00	; 0
	.db #0x00	; 0
	.db #0x00	; 0
	.db #0x00	; 0
	.db #0x00	; 0
	.db #0x00	; 0
	.db #0x00	; 0
	.db #0x00	; 0
	.db #0x00	; 0
	.db #0x00	; 0
	.db #0x00	; 0
	.db #0x00	; 0
	.db #0x00	; 0
	.db #0x00	; 0
	.db #0x00	; 0
	.db #0x00	; 0
	.db #0x00	; 0
	.db #0x00	; 0
	.db #0x00	; 0
	.db #0x00	; 0
	.db #0x00	; 0
	.db #0x00	; 0
	.db #0x00	; 0
	.db #0x00	; 0
	.db #0x00	; 0
	.db #0x00	; 0
	.db #0x00	; 0
	.db #0x00	; 0
	.db #0x00	; 0
	.db #0x00	; 0
	.db #0x00	; 0
	.db #0x00	; 0
	.db #0x00	; 0
	.db #0x00	; 0
	.db #0x00	; 0
	.db #0x00	; 0
	.db #0x00	; 0
	.db #0x00	; 0
	.db #0x00	; 0
	.db #0x00	; 0
	.db #0x00	; 0
	.db #0xc7	; 199
	.db #0xc3	; 195
	.db #0xe0	; 224
	.db #0xe0	; 224
	.db #0xf8	; 248
	.db #0x00	; 0
	.db #0x00	; 0
	.db #0x00	; 0
	.db #0xe1	; 225
	.db #0xe1	; 225
	.db #0x01	; 1
	.db #0x03	; 3
	.db #0x1f	; 31
	.db #0x00	; 0
	.db #0x00	; 0
	.db #0x00	; 0
	.db #0xc3	; 195
	.db #0xc3	; 195
	.db #0xc7	; 199
	.db #0xc7	; 199
	.db #0x87	; 135
	.db #0x00	; 0
	.db #0x00	; 0
	.db #0x00	; 0
	.db #0xc3	; 195
	.db #0xc3	; 195
	.db #0xe1	; 225
	.db #0xe1	; 225
	.db #0xe1	; 225
	.db #0x00	; 0
	.db #0x00	; 0
	.db #0x00	; 0
	.db #0xc3	; 195
	.db #0xc3	; 195
	.db #0xc0	; 192
	.db #0xc0	; 192
	.db #0x80	; 128
	.db #0x00	; 0
	.db #0x00	; 0
	.db #0x00	; 0
	.db #0x00	; 0
	.db #0x00	; 0
	.db #0x03	; 3
	.db #0x03	; 3
	.db #0x06	; 6
	.db #0x00	; 0
	.db #0x00	; 0
	.db #0x00	; 0
	.db #0x0f	; 15
	.db #0x0f	; 15
	.db #0x00	; 0
	.db #0x00	; 0
	.db #0x00	; 0
	.db #0x00	; 0
	.db #0x00	; 0
	.db #0x00	; 0
	.db #0xfc	; 252
	.db #0xfc	; 252
	.db #0x0c	; 12
	.db #0x0c	; 12
	.db #0x18	; 24
	.db #0x00	; 0
	.db #0x00	; 0
	.db #0x00	; 0
	.db #0x3c	; 60
	.db #0x3e	; 62
	.db #0x7e	; 126
	.db #0x7f	; 127
	.db #0x7f	; 127
	.db #0x00	; 0
	.db #0x00	; 0
	.db #0x00	; 0
	.db #0x07	; 7
	.db #0x07	; 7
	.db #0x0f	; 15
	.db #0x0f	; 15
	.db #0x0f	; 15
	.db #0x00	; 0
	.db #0x00	; 0
	.db #0x00	; 0
	.db #0x00	; 0
	.db #0x00	; 0
	.db #0x00	; 0
	.db #0x00	; 0
	.db #0x00	; 0
	.db #0x00	; 0
	.db #0x00	; 0
	.db #0x00	; 0
	.db #0x00	; 0
	.db #0x00	; 0
	.db #0x00	; 0
	.db #0x00	; 0
	.db #0x00	; 0
	.db #0x00	; 0
	.db #0x00	; 0
	.db #0x00	; 0
	.db #0x00	; 0
	.db #0x00	; 0
	.db #0x00	; 0
	.db #0x00	; 0
	.db #0x00	; 0
	.db #0x00	; 0
	.db #0x00	; 0
	.db #0x00	; 0
	.db #0x00	; 0
	.db #0x00	; 0
	.db #0x00	; 0
	.db #0x00	; 0
	.db #0x00	; 0
	.db #0x00	; 0
	.db #0x00	; 0
	.db #0x00	; 0
	.db #0x00	; 0
	.db #0x00	; 0
	.db #0x00	; 0
	.db #0x00	; 0
	.db #0x00	; 0
	.db #0x00	; 0
	.db #0x00	; 0
	.db #0x00	; 0
	.db #0x00	; 0
	.db #0x00	; 0
	.db #0x00	; 0
	.db #0x00	; 0
	.db #0x00	; 0
	.db #0x00	; 0
	.db #0x00	; 0
	.db #0x00	; 0
	.db #0x00	; 0
	.db #0x00	; 0
	.db #0x00	; 0
	.db #0x00	; 0
	.db #0x00	; 0
	.db #0x00	; 0
	.db #0x00	; 0
	.db #0x00	; 0
	.db #0x00	; 0
	.db #0x00	; 0
	.db #0x00	; 0
	.db #0x00	; 0
	.db #0x00	; 0
	.db #0x00	; 0
	.db #0x00	; 0
	.db #0x00	; 0
	.db #0x00	; 0
	.db #0x00	; 0
	.db #0x00	; 0
	.db #0x00	; 0
	.db #0x00	; 0
	.db #0x00	; 0
	.db #0x00	; 0
	.db #0x00	; 0
	.db #0x00	; 0
	.db #0x00	; 0
	.db #0x00	; 0
	.db #0x00	; 0
	.db #0x00	; 0
	.db #0x00	; 0
	.db #0x00	; 0
	.db #0x00	; 0
	.db #0x00	; 0
	.db #0x00	; 0
	.db #0x00	; 0
	.db #0x00	; 0
	.db #0x00	; 0
	.db #0x00	; 0
	.db #0x00	; 0
	.db #0x00	; 0
	.db #0x00	; 0
	.db #0x00	; 0
	.db #0x00	; 0
	.db #0x00	; 0
	.db #0x00	; 0
	.db #0x00	; 0
	.db #0x00	; 0
	.db #0x00	; 0
	.db #0x00	; 0
	.db #0x00	; 0
	.db #0x00	; 0
	.db #0x00	; 0
	.db #0x00	; 0
	.db #0x00	; 0
	.db #0x00	; 0
	.db #0x00	; 0
	.db #0x00	; 0
	.db #0x00	; 0
	.db #0x00	; 0
	.db #0x00	; 0
	.db #0x00	; 0
	.db #0x00	; 0
	.db #0x00	; 0
	.db #0x00	; 0
	.db #0x00	; 0
	.db #0x00	; 0
	.db #0x00	; 0
	.db #0x00	; 0
	.db #0x00	; 0
	.db #0x00	; 0
	.db #0x00	; 0
	.db #0x00	; 0
	.db #0x00	; 0
	.db #0x00	; 0
	.db #0x00	; 0
	.db #0x00	; 0
	.db #0x00	; 0
	.db #0x00	; 0
	.db #0x00	; 0
	.db #0x00	; 0
	.db #0x00	; 0
	.db #0x00	; 0
	.db #0x00	; 0
	.db #0x00	; 0
	.db #0x00	; 0
	.db #0x00	; 0
	.db #0x00	; 0
	.db #0x00	; 0
	.db #0x00	; 0
	.db #0x00	; 0
	.db #0x00	; 0
	.db #0x00	; 0
	.db #0x00	; 0
	.db #0x00	; 0
	.db #0x00	; 0
	.db #0x00	; 0
	.db #0x00	; 0
	.db #0x00	; 0
	.db #0x00	; 0
	.db #0x00	; 0
	.db #0x00	; 0
	.db #0x00	; 0
	.db #0x00	; 0
	.db #0x00	; 0
	.db #0x00	; 0
	.db #0x00	; 0
	.db #0x00	; 0
	.db #0x00	; 0
	.db #0x00	; 0
	.db #0x00	; 0
	.db #0x00	; 0
	.db #0x00	; 0
	.db #0x00	; 0
	.db #0x00	; 0
	.db #0x00	; 0
	.db #0x00	; 0
	.db #0x00	; 0
	.db #0x00	; 0
	.db #0x00	; 0
	.db #0x00	; 0
	.db #0x00	; 0
	.db #0x00	; 0
	.db #0x00	; 0
	.db #0x00	; 0
	.db #0x00	; 0
	.db #0x00	; 0
	.db #0x00	; 0
	.db #0x00	; 0
	.db #0x38	; 56	'8'
	.db #0x44	; 68	'D'
	.db #0x9a	; 154
	.db #0xa2	; 162
	.db #0x9a	; 154
	.db #0x44	; 68	'D'
	.db #0x38	; 56	'8'
	.db #0x00	; 0
	.db #0x00	; 0
	.db #0x00	; 0
	.db #0x00	; 0
	.db #0x00	; 0
	.db #0x00	; 0
	.db #0x00	; 0
	.db #0x00	; 0
	.db #0x00	; 0
	.db #0x18	; 24
	.db #0x3c	; 60
	.db #0x3c	; 60
	.db #0x18	; 24
	.db #0x18	; 24
	.db #0x00	; 0
	.db #0x18	; 24
	.db #0x00	; 0
	.db #0x36	; 54	'6'
	.db #0x36	; 54	'6'
	.db #0x36	; 54	'6'
	.db #0x00	; 0
	.db #0x00	; 0
	.db #0x00	; 0
	.db #0x00	; 0
	.db #0x00	; 0
	.db #0x36	; 54	'6'
	.db #0x36	; 54	'6'
	.db #0x7f	; 127
	.db #0x36	; 54	'6'
	.db #0x7f	; 127
	.db #0x36	; 54	'6'
	.db #0x36	; 54	'6'
	.db #0x00	; 0
	.db #0x18	; 24
	.db #0x3e	; 62
	.db #0x60	; 96
	.db #0x3c	; 60
	.db #0x06	; 6
	.db #0x7c	; 124
	.db #0x18	; 24
	.db #0x00	; 0
	.db #0x60	; 96
	.db #0x66	; 102	'f'
	.db #0x0c	; 12
	.db #0x18	; 24
	.db #0x30	; 48	'0'
	.db #0x66	; 102	'f'
	.db #0x06	; 6
	.db #0x00	; 0
	.db #0x1c	; 28
	.db #0x36	; 54	'6'
	.db #0x1c	; 28
	.db #0x3b	; 59
	.db #0x6e	; 110	'n'
	.db #0x66	; 102	'f'
	.db #0x3b	; 59
	.db #0x00	; 0
	.db #0x1c	; 28
	.db #0x18	; 24
	.db #0x30	; 48	'0'
	.db #0x00	; 0
	.db #0x00	; 0
	.db #0x00	; 0
	.db #0x00	; 0
	.db #0x00	; 0
	.db #0x0c	; 12
	.db #0x18	; 24
	.db #0x30	; 48	'0'
	.db #0x30	; 48	'0'
	.db #0x30	; 48	'0'
	.db #0x18	; 24
	.db #0x0c	; 12
	.db #0x00	; 0
	.db #0x30	; 48	'0'
	.db #0x18	; 24
	.db #0x0c	; 12
	.db #0x0c	; 12
	.db #0x0c	; 12
	.db #0x18	; 24
	.db #0x30	; 48	'0'
	.db #0x00	; 0
	.db #0x00	; 0
	.db #0x66	; 102	'f'
	.db #0x3c	; 60
	.db #0x18	; 24
	.db #0x3c	; 60
	.db #0x66	; 102	'f'
	.db #0x00	; 0
	.db #0x00	; 0
	.db #0x00	; 0
	.db #0x18	; 24
	.db #0x18	; 24
	.db #0x7e	; 126
	.db #0x18	; 24
	.db #0x18	; 24
	.db #0x00	; 0
	.db #0x00	; 0
	.db #0x00	; 0
	.db #0x00	; 0
	.db #0x00	; 0
	.db #0x00	; 0
	.db #0x00	; 0
	.db #0x18	; 24
	.db #0x18	; 24
	.db #0x30	; 48	'0'
	.db #0x00	; 0
	.db #0x00	; 0
	.db #0x00	; 0
	.db #0x7e	; 126
	.db #0x00	; 0
	.db #0x00	; 0
	.db #0x00	; 0
	.db #0x00	; 0
	.db #0x00	; 0
	.db #0x00	; 0
	.db #0x00	; 0
	.db #0x00	; 0
	.db #0x00	; 0
	.db #0x18	; 24
	.db #0x18	; 24
	.db #0x00	; 0
	.db #0x00	; 0
	.db #0x06	; 6
	.db #0x0c	; 12
	.db #0x18	; 24
	.db #0x30	; 48	'0'
	.db #0x60	; 96
	.db #0x00	; 0
	.db #0x00	; 0
	.db #0x3c	; 60
	.db #0x66	; 102	'f'
	.db #0x6e	; 110	'n'
	.db #0x7e	; 126
	.db #0x76	; 118	'v'
	.db #0x66	; 102	'f'
	.db #0x3c	; 60
	.db #0x00	; 0
	.db #0x18	; 24
	.db #0x38	; 56	'8'
	.db #0x18	; 24
	.db #0x18	; 24
	.db #0x18	; 24
	.db #0x18	; 24
	.db #0x7e	; 126
	.db #0x00	; 0
	.db #0x3c	; 60
	.db #0x66	; 102	'f'
	.db #0x06	; 6
	.db #0x1c	; 28
	.db #0x30	; 48	'0'
	.db #0x66	; 102	'f'
	.db #0x7e	; 126
	.db #0x00	; 0
	.db #0x3c	; 60
	.db #0x66	; 102	'f'
	.db #0x06	; 6
	.db #0x1c	; 28
	.db #0x06	; 6
	.db #0x66	; 102	'f'
	.db #0x3c	; 60
	.db #0x00	; 0
	.db #0x0e	; 14
	.db #0x1e	; 30
	.db #0x36	; 54	'6'
	.db #0x66	; 102	'f'
	.db #0x7f	; 127
	.db #0x06	; 6
	.db #0x0f	; 15
	.db #0x00	; 0
	.db #0x7e	; 126
	.db #0x60	; 96
	.db #0x60	; 96
	.db #0x7c	; 124
	.db #0x06	; 6
	.db #0x66	; 102	'f'
	.db #0x3c	; 60
	.db #0x00	; 0
	.db #0x1c	; 28
	.db #0x30	; 48	'0'
	.db #0x60	; 96
	.db #0x7c	; 124
	.db #0x66	; 102	'f'
	.db #0x66	; 102	'f'
	.db #0x3c	; 60
	.db #0x00	; 0
	.db #0x7e	; 126
	.db #0x66	; 102	'f'
	.db #0x06	; 6
	.db #0x0c	; 12
	.db #0x18	; 24
	.db #0x18	; 24
	.db #0x18	; 24
	.db #0x00	; 0
	.db #0x3c	; 60
	.db #0x66	; 102	'f'
	.db #0x66	; 102	'f'
	.db #0x3c	; 60
	.db #0x66	; 102	'f'
	.db #0x66	; 102	'f'
	.db #0x3c	; 60
	.db #0x00	; 0
	.db #0x3c	; 60
	.db #0x66	; 102	'f'
	.db #0x66	; 102	'f'
	.db #0x3e	; 62
	.db #0x06	; 6
	.db #0x0c	; 12
	.db #0x38	; 56	'8'
	.db #0x00	; 0
	.db #0x00	; 0
	.db #0x00	; 0
	.db #0x18	; 24
	.db #0x18	; 24
	.db #0x00	; 0
	.db #0x18	; 24
	.db #0x18	; 24
	.db #0x00	; 0
	.db #0x00	; 0
	.db #0x00	; 0
	.db #0x18	; 24
	.db #0x18	; 24
	.db #0x00	; 0
	.db #0x18	; 24
	.db #0x18	; 24
	.db #0x30	; 48	'0'
	.db #0x0c	; 12
	.db #0x18	; 24
	.db #0x30	; 48	'0'
	.db #0x60	; 96
	.db #0x30	; 48	'0'
	.db #0x18	; 24
	.db #0x0c	; 12
	.db #0x00	; 0
	.db #0x00	; 0
	.db #0x00	; 0
	.db #0x7e	; 126
	.db #0x00	; 0
	.db #0x7e	; 126
	.db #0x00	; 0
	.db #0x00	; 0
	.db #0x00	; 0
	.db #0x30	; 48	'0'
	.db #0x18	; 24
	.db #0x0c	; 12
	.db #0x06	; 6
	.db #0x0c	; 12
	.db #0x18	; 24
	.db #0x30	; 48	'0'
	.db #0x00	; 0
	.db #0x3c	; 60
	.db #0x66	; 102	'f'
	.db #0x06	; 6
	.db #0x0c	; 12
	.db #0x18	; 24
	.db #0x00	; 0
	.db #0x18	; 24
	.db #0x00	; 0
	.db #0x3c	; 60
	.db #0x66	; 102	'f'
	.db #0x6e	; 110	'n'
	.db #0x6a	; 106	'j'
	.db #0x6e	; 110	'n'
	.db #0x60	; 96
	.db #0x3c	; 60
	.db #0x00	; 0
	.db #0x3c	; 60
	.db #0x66	; 102	'f'
	.db #0x66	; 102	'f'
	.db #0x7e	; 126
	.db #0x66	; 102	'f'
	.db #0x66	; 102	'f'
	.db #0x66	; 102	'f'
	.db #0x00	; 0
	.db #0x7c	; 124
	.db #0x66	; 102	'f'
	.db #0x66	; 102	'f'
	.db #0x7c	; 124
	.db #0x66	; 102	'f'
	.db #0x66	; 102	'f'
	.db #0x7c	; 124
	.db #0x00	; 0
	.db #0x3c	; 60
	.db #0x66	; 102	'f'
	.db #0x60	; 96
	.db #0x60	; 96
	.db #0x60	; 96
	.db #0x66	; 102	'f'
	.db #0x3c	; 60
	.db #0x00	; 0
	.db #0x78	; 120	'x'
	.db #0x6c	; 108	'l'
	.db #0x66	; 102	'f'
	.db #0x66	; 102	'f'
	.db #0x66	; 102	'f'
	.db #0x6c	; 108	'l'
	.db #0x78	; 120	'x'
	.db #0x00	; 0
	.db #0x7e	; 126
	.db #0x60	; 96
	.db #0x60	; 96
	.db #0x7c	; 124
	.db #0x60	; 96
	.db #0x60	; 96
	.db #0x7e	; 126
	.db #0x00	; 0
	.db #0x7e	; 126
	.db #0x60	; 96
	.db #0x60	; 96
	.db #0x7c	; 124
	.db #0x60	; 96
	.db #0x60	; 96
	.db #0x60	; 96
	.db #0x00	; 0
	.db #0x3c	; 60
	.db #0x66	; 102	'f'
	.db #0x60	; 96
	.db #0x6e	; 110	'n'
	.db #0x66	; 102	'f'
	.db #0x66	; 102	'f'
	.db #0x3c	; 60
	.db #0x00	; 0
	.db #0x66	; 102	'f'
	.db #0x66	; 102	'f'
	.db #0x66	; 102	'f'
	.db #0x7e	; 126
	.db #0x66	; 102	'f'
	.db #0x66	; 102	'f'
	.db #0x66	; 102	'f'
	.db #0x00	; 0
	.db #0x3c	; 60
	.db #0x18	; 24
	.db #0x18	; 24
	.db #0x18	; 24
	.db #0x18	; 24
	.db #0x18	; 24
	.db #0x3c	; 60
	.db #0x00	; 0
	.db #0x0e	; 14
	.db #0x06	; 6
	.db #0x06	; 6
	.db #0x06	; 6
	.db #0x66	; 102	'f'
	.db #0x66	; 102	'f'
	.db #0x3c	; 60
	.db #0x00	; 0
	.db #0x66	; 102	'f'
	.db #0x66	; 102	'f'
	.db #0x6c	; 108	'l'
	.db #0x78	; 120	'x'
	.db #0x6c	; 108	'l'
	.db #0x66	; 102	'f'
	.db #0x66	; 102	'f'
	.db #0x00	; 0
	.db #0x60	; 96
	.db #0x60	; 96
	.db #0x60	; 96
	.db #0x60	; 96
	.db #0x60	; 96
	.db #0x60	; 96
	.db #0x7e	; 126
	.db #0x00	; 0
	.db #0x63	; 99	'c'
	.db #0x77	; 119	'w'
	.db #0x7f	; 127
	.db #0x7f	; 127
	.db #0x6b	; 107	'k'
	.db #0x63	; 99	'c'
	.db #0x63	; 99	'c'
	.db #0x00	; 0
	.db #0x66	; 102	'f'
	.db #0x76	; 118	'v'
	.db #0x7e	; 126
	.db #0x7e	; 126
	.db #0x6e	; 110	'n'
	.db #0x66	; 102	'f'
	.db #0x66	; 102	'f'
	.db #0x00	; 0
	.db #0x3c	; 60
	.db #0x66	; 102	'f'
	.db #0x66	; 102	'f'
	.db #0x66	; 102	'f'
	.db #0x66	; 102	'f'
	.db #0x66	; 102	'f'
	.db #0x3c	; 60
	.db #0x00	; 0
	.db #0x7c	; 124
	.db #0x66	; 102	'f'
	.db #0x66	; 102	'f'
	.db #0x7c	; 124
	.db #0x60	; 96
	.db #0x60	; 96
	.db #0x60	; 96
	.db #0x00	; 0
	.db #0x3c	; 60
	.db #0x66	; 102	'f'
	.db #0x66	; 102	'f'
	.db #0x66	; 102	'f'
	.db #0x6e	; 110	'n'
	.db #0x3c	; 60
	.db #0x0e	; 14
	.db #0x00	; 0
	.db #0x7c	; 124
	.db #0x66	; 102	'f'
	.db #0x66	; 102	'f'
	.db #0x7c	; 124
	.db #0x6c	; 108	'l'
	.db #0x66	; 102	'f'
	.db #0x66	; 102	'f'
	.db #0x00	; 0
	.db #0x3c	; 60
	.db #0x66	; 102	'f'
	.db #0x60	; 96
	.db #0x3c	; 60
	.db #0x06	; 6
	.db #0x66	; 102	'f'
	.db #0x3c	; 60
	.db #0x00	; 0
	.db #0x7e	; 126
	.db #0x18	; 24
	.db #0x18	; 24
	.db #0x18	; 24
	.db #0x18	; 24
	.db #0x18	; 24
	.db #0x18	; 24
	.db #0x00	; 0
	.db #0x66	; 102	'f'
	.db #0x66	; 102	'f'
	.db #0x66	; 102	'f'
	.db #0x66	; 102	'f'
	.db #0x66	; 102	'f'
	.db #0x66	; 102	'f'
	.db #0x3c	; 60
	.db #0x00	; 0
	.db #0x66	; 102	'f'
	.db #0x66	; 102	'f'
	.db #0x66	; 102	'f'
	.db #0x66	; 102	'f'
	.db #0x66	; 102	'f'
	.db #0x3c	; 60
	.db #0x18	; 24
	.db #0x00	; 0
	.db #0x63	; 99	'c'
	.db #0x63	; 99	'c'
	.db #0x63	; 99	'c'
	.db #0x6b	; 107	'k'
	.db #0x7f	; 127
	.db #0x77	; 119	'w'
	.db #0x63	; 99	'c'
	.db #0x00	; 0
	.db #0x66	; 102	'f'
	.db #0x66	; 102	'f'
	.db #0x3c	; 60
	.db #0x18	; 24
	.db #0x3c	; 60
	.db #0x66	; 102	'f'
	.db #0x66	; 102	'f'
	.db #0x00	; 0
	.db #0x66	; 102	'f'
	.db #0x66	; 102	'f'
	.db #0x66	; 102	'f'
	.db #0x3c	; 60
	.db #0x18	; 24
	.db #0x18	; 24
	.db #0x18	; 24
	.db #0x00	; 0
	.db #0x7e	; 126
	.db #0x06	; 6
	.db #0x0c	; 12
	.db #0x18	; 24
	.db #0x30	; 48	'0'
	.db #0x60	; 96
	.db #0x7e	; 126
	.db #0x00	; 0
	.db #0x3e	; 62
	.db #0x30	; 48	'0'
	.db #0x30	; 48	'0'
	.db #0x30	; 48	'0'
	.db #0x30	; 48	'0'
	.db #0x30	; 48	'0'
	.db #0x3e	; 62
	.db #0x00	; 0
	.db #0x00	; 0
	.db #0x60	; 96
	.db #0x30	; 48	'0'
	.db #0x18	; 24
	.db #0x0c	; 12
	.db #0x06	; 6
	.db #0x00	; 0
	.db #0x00	; 0
	.db #0x3e	; 62
	.db #0x06	; 6
	.db #0x06	; 6
	.db #0x06	; 6
	.db #0x06	; 6
	.db #0x06	; 6
	.db #0x3e	; 62
	.db #0x00	; 0
	.db #0x08	; 8
	.db #0x1c	; 28
	.db #0x36	; 54	'6'
	.db #0x63	; 99	'c'
	.db #0x00	; 0
	.db #0x00	; 0
	.db #0x00	; 0
	.db #0x00	; 0
	.db #0x00	; 0
	.db #0x55	; 85	'U'
	.db #0x18	; 24
	.db #0x7e	; 126
	.db #0x10	; 16
	.db #0x38	; 56	'8'
	.db #0xef	; 239
	.db #0xfc	; 252
	.db #0x00	; 0
	.db #0x6c	; 108	'l'
	.db #0xfe	; 254
	.db #0xfe	; 254
	.db #0x7c	; 124
	.db #0x38	; 56	'8'
	.db #0x10	; 16
	.db #0x00	; 0
	.db #0x00	; 0
	.db #0x00	; 0
	.db #0x00	; 0
	.db #0x00	; 0
	.db #0x00	; 0
	.db #0x00	; 0
	.db #0x00	; 0
	.db #0x00	; 0
	.db #0x00	; 0
	.db #0x00	; 0
	.db #0x00	; 0
	.db #0x00	; 0
	.db #0x00	; 0
	.db #0x00	; 0
	.db #0x00	; 0
	.db #0x00	; 0
	.db #0x00	; 0
	.db #0x00	; 0
	.db #0x00	; 0
	.db #0x00	; 0
	.db #0x00	; 0
	.db #0x00	; 0
	.db #0x00	; 0
	.db #0x00	; 0
	.db #0x00	; 0
	.db #0x00	; 0
	.db #0x00	; 0
	.db #0x00	; 0
	.db #0x00	; 0
	.db #0x00	; 0
	.db #0x00	; 0
	.db #0x00	; 0
	.db #0x00	; 0
	.db #0x00	; 0
	.db #0x00	; 0
	.db #0x00	; 0
	.db #0x00	; 0
	.db #0x00	; 0
	.db #0x00	; 0
	.db #0x00	; 0
	.db #0x00	; 0
	.db #0x00	; 0
	.db #0x00	; 0
	.db #0x00	; 0
	.db #0x00	; 0
	.db #0x00	; 0
	.db #0x00	; 0
	.db #0x00	; 0
	.db #0x00	; 0
	.db #0x00	; 0
	.db #0x00	; 0
	.db #0x00	; 0
	.db #0x00	; 0
	.db #0x00	; 0
	.db #0x00	; 0
	.db #0x00	; 0
	.db #0x00	; 0
	.db #0x00	; 0
	.db #0x00	; 0
	.db #0x00	; 0
	.db #0x00	; 0
	.db #0x00	; 0
	.db #0x00	; 0
	.db #0x00	; 0
	.db #0x00	; 0
	.db #0x00	; 0
	.db #0x00	; 0
	.db #0x00	; 0
	.db #0x00	; 0
	.db #0x00	; 0
	.db #0x00	; 0
	.db #0x00	; 0
	.db #0x00	; 0
	.db #0x00	; 0
	.db #0x00	; 0
	.db #0x00	; 0
	.db #0x00	; 0
	.db #0x00	; 0
	.db #0x00	; 0
	.db #0x00	; 0
	.db #0x00	; 0
	.db #0x00	; 0
	.db #0x00	; 0
	.db #0x00	; 0
	.db #0x00	; 0
	.db #0x00	; 0
	.db #0x00	; 0
	.db #0x00	; 0
	.db #0x00	; 0
	.db #0x00	; 0
	.db #0x00	; 0
	.db #0x00	; 0
	.db #0x00	; 0
	.db #0x00	; 0
	.db #0x00	; 0
	.db #0x00	; 0
	.db #0x00	; 0
	.db #0x00	; 0
	.db #0x00	; 0
	.db #0x00	; 0
	.db #0x00	; 0
	.db #0x00	; 0
	.db #0x00	; 0
	.db #0x00	; 0
	.db #0x00	; 0
	.db #0x00	; 0
	.db #0x00	; 0
	.db #0x00	; 0
	.db #0x00	; 0
	.db #0x00	; 0
	.db #0x00	; 0
	.db #0x00	; 0
	.db #0x00	; 0
	.db #0x00	; 0
	.db #0x00	; 0
	.db #0x00	; 0
	.db #0x00	; 0
	.db #0x00	; 0
	.db #0x00	; 0
	.db #0x00	; 0
	.db #0x00	; 0
	.db #0x00	; 0
	.db #0x00	; 0
	.db #0x00	; 0
	.db #0x00	; 0
	.db #0x00	; 0
	.db #0x00	; 0
	.db #0x00	; 0
	.db #0x00	; 0
	.db #0x00	; 0
	.db #0x00	; 0
	.db #0x00	; 0
	.db #0x00	; 0
	.db #0x00	; 0
	.db #0x00	; 0
	.db #0x00	; 0
	.db #0x00	; 0
	.db #0x00	; 0
	.db #0x00	; 0
	.db #0x00	; 0
	.db #0x00	; 0
	.db #0x00	; 0
	.db #0x00	; 0
	.db #0x00	; 0
	.db #0x00	; 0
	.db #0x00	; 0
	.db #0x00	; 0
	.db #0x00	; 0
	.db #0x00	; 0
	.db #0x00	; 0
	.db #0x00	; 0
	.db #0x00	; 0
	.db #0x00	; 0
	.db #0x00	; 0
	.db #0x00	; 0
	.db #0x00	; 0
	.db #0x00	; 0
	.db #0x00	; 0
	.db #0x00	; 0
	.db #0x00	; 0
	.db #0x00	; 0
	.db #0x00	; 0
	.db #0x00	; 0
	.db #0x00	; 0
	.db #0x00	; 0
	.db #0x00	; 0
	.db #0x00	; 0
	.db #0x00	; 0
	.db #0x00	; 0
	.db #0x00	; 0
	.db #0x00	; 0
	.db #0x00	; 0
	.db #0x00	; 0
	.db #0x00	; 0
	.db #0x00	; 0
	.db #0x00	; 0
	.db #0x00	; 0
	.db #0x00	; 0
	.db #0x00	; 0
	.db #0x00	; 0
	.db #0x00	; 0
	.db #0x00	; 0
	.db #0x00	; 0
	.db #0x00	; 0
	.db #0x00	; 0
	.db #0x00	; 0
	.db #0x00	; 0
	.db #0x00	; 0
	.db #0x00	; 0
	.db #0x00	; 0
	.db #0x00	; 0
	.db #0x00	; 0
	.db #0x00	; 0
	.db #0x00	; 0
	.db #0x00	; 0
	.db #0x00	; 0
	.db #0x00	; 0
	.db #0x00	; 0
	.db #0x00	; 0
	.db #0x00	; 0
	.db #0x00	; 0
	.db #0x00	; 0
	.db #0x00	; 0
	.db #0x00	; 0
	.db #0x00	; 0
	.db #0x00	; 0
	.db #0x00	; 0
	.db #0x00	; 0
	.db #0x00	; 0
	.db #0x00	; 0
	.db #0x00	; 0
	.db #0x00	; 0
	.db #0x00	; 0
	.db #0x00	; 0
	.db #0x00	; 0
	.db #0x00	; 0
	.db #0x00	; 0
	.db #0x00	; 0
	.db #0x00	; 0
	.db #0x00	; 0
	.db #0x00	; 0
	.db #0x00	; 0
	.db #0x00	; 0
	.db #0x00	; 0
	.db #0x00	; 0
	.db #0x00	; 0
	.db #0x00	; 0
	.db #0x00	; 0
	.db #0x00	; 0
	.db #0x00	; 0
	.db #0x00	; 0
	.db #0x00	; 0
	.db #0x00	; 0
	.db #0x00	; 0
	.db #0x00	; 0
	.db #0x00	; 0
	.db #0x00	; 0
	.db #0x00	; 0
	.db #0x00	; 0
	.db #0x00	; 0
	.db #0xfc	; 252
	.db #0xfc	; 252
	.db #0xfc	; 252
	.db #0xfc	; 252
	.db #0x38	; 56	'8'
	.db #0x00	; 0
	.db #0x7e	; 126
	.db #0x00	; 0
	.db #0x00	; 0
	.db #0x00	; 0
	.db #0x00	; 0
	.db #0x00	; 0
	.db #0x00	; 0
	.db #0x00	; 0
	.db #0x00	; 0
	.db #0x00	; 0
	.db #0x00	; 0
	.db #0x00	; 0
	.db #0x00	; 0
	.db #0x00	; 0
	.db #0x00	; 0
	.db #0x00	; 0
	.db #0x00	; 0
	.db #0x00	; 0
	.db #0x00	; 0
	.db #0x00	; 0
	.db #0x00	; 0
	.db #0x00	; 0
	.db #0x00	; 0
	.db #0x00	; 0
	.db #0x00	; 0
	.db #0x00	; 0
	.db #0x00	; 0
	.db #0x00	; 0
	.db #0x00	; 0
	.db #0x00	; 0
	.db #0x00	; 0
	.db #0x00	; 0
	.db #0x00	; 0
	.db #0x00	; 0
	.db #0x00	; 0
	.db #0x00	; 0
	.db #0x00	; 0
	.db #0x00	; 0
	.db #0x00	; 0
	.db #0x00	; 0
	.db #0x00	; 0
	.db #0x00	; 0
	.db #0x00	; 0
	.db #0x00	; 0
	.db #0x00	; 0
	.db #0x00	; 0
	.db #0x00	; 0
	.db #0x00	; 0
	.db #0x00	; 0
	.db #0x00	; 0
	.db #0x00	; 0
	.db #0x00	; 0
	.db #0x00	; 0
	.db #0x00	; 0
	.db #0x00	; 0
	.db #0x00	; 0
	.db #0x00	; 0
	.db #0x00	; 0
	.db #0x00	; 0
	.db #0x00	; 0
	.db #0x00	; 0
	.db #0x00	; 0
	.db #0x00	; 0
	.db #0x00	; 0
	.db #0x00	; 0
	.db #0x00	; 0
	.db #0x00	; 0
	.db #0x00	; 0
	.db #0x00	; 0
	.db #0x00	; 0
	.db #0x00	; 0
	.db #0x00	; 0
	.db #0x00	; 0
	.db #0x00	; 0
	.db #0x00	; 0
	.db #0x00	; 0
	.db #0x00	; 0
	.db #0x00	; 0
	.db #0x00	; 0
	.db #0x00	; 0
	.db #0x00	; 0
	.db #0x00	; 0
	.db #0x00	; 0
	.db #0x00	; 0
	.db #0x00	; 0
	.db #0x00	; 0
	.db #0x00	; 0
	.db #0x00	; 0
	.db #0x00	; 0
	.db #0x00	; 0
	.db #0x00	; 0
	.db #0x00	; 0
	.db #0x00	; 0
	.db #0x00	; 0
	.db #0x00	; 0
	.db #0x00	; 0
	.db #0x00	; 0
	.db #0x00	; 0
	.db #0x00	; 0
	.db #0x00	; 0
	.db #0x00	; 0
	.db #0x00	; 0
	.db #0x00	; 0
	.db #0x00	; 0
	.db #0x00	; 0
	.db #0x00	; 0
	.db #0x00	; 0
	.db #0x00	; 0
	.db #0x00	; 0
	.db #0x00	; 0
	.db #0x00	; 0
	.db #0x00	; 0
	.db #0x00	; 0
	.db #0x00	; 0
	.db #0x00	; 0
	.db #0x00	; 0
	.db #0x00	; 0
	.db #0x00	; 0
	.db #0x00	; 0
	.db #0x00	; 0
	.db #0x00	; 0
	.db #0x00	; 0
	.db #0x00	; 0
	.db #0x00	; 0
	.db #0x00	; 0
	.db #0x00	; 0
	.db #0x00	; 0
	.db #0x00	; 0
	.db #0x00	; 0
	.db #0x00	; 0
	.db #0x00	; 0
	.db #0x00	; 0
	.db #0x00	; 0
	.db #0x00	; 0
	.db #0x00	; 0
	.db #0x00	; 0
	.db #0x00	; 0
	.db #0x00	; 0
	.db #0x00	; 0
	.db #0x00	; 0
	.db #0x00	; 0
	.db #0x00	; 0
	.db #0x00	; 0
	.db #0x00	; 0
	.db #0x00	; 0
	.db #0x00	; 0
	.db #0x00	; 0
	.db #0x00	; 0
	.db #0x00	; 0
	.db #0x00	; 0
	.db #0x00	; 0
	.db #0x00	; 0
	.db #0x00	; 0
	.db #0x00	; 0
	.db #0x00	; 0
	.db #0x00	; 0
	.db #0x00	; 0
	.db #0x00	; 0
	.db #0x00	; 0
	.db #0x00	; 0
	.db #0x00	; 0
	.db #0x00	; 0
	.db #0x00	; 0
	.db #0x00	; 0
	.db #0x00	; 0
	.db #0x00	; 0
	.db #0x00	; 0
	.db #0x00	; 0
	.db #0x00	; 0
	.db #0x00	; 0
	.db #0x00	; 0
	.db #0x00	; 0
	.db #0x00	; 0
	.db #0x00	; 0
	.db #0x00	; 0
	.db #0x00	; 0
	.db #0x00	; 0
	.db #0x00	; 0
	.db #0x00	; 0
	.db #0x00	; 0
	.db #0x00	; 0
	.db #0x00	; 0
	.db #0x00	; 0
	.db #0x00	; 0
	.db #0x00	; 0
	.db #0x00	; 0
	.db #0x00	; 0
	.db #0x00	; 0
	.db #0x00	; 0
	.db #0x00	; 0
	.db #0x00	; 0
	.db #0x00	; 0
	.db #0x00	; 0
	.db #0x00	; 0
	.db #0x00	; 0
	.db #0x00	; 0
	.db #0x00	; 0
	.db #0x00	; 0
	.db #0x00	; 0
	.db #0x00	; 0
	.db #0x00	; 0
	.db #0x00	; 0
	.db #0x00	; 0
	.db #0x00	; 0
	.db #0x00	; 0
	.db #0x00	; 0
	.db #0x00	; 0
	.db #0x00	; 0
	.db #0x00	; 0
	.db #0x00	; 0
	.db #0x00	; 0
	.db #0x00	; 0
	.db #0x00	; 0
	.db #0x00	; 0
	.db #0x00	; 0
	.db #0x00	; 0
	.db #0x00	; 0
	.db #0x00	; 0
	.db #0x00	; 0
	.db #0x00	; 0
	.db #0x00	; 0
	.db #0x00	; 0
	.db #0x00	; 0
	.db #0x00	; 0
	.db #0x00	; 0
	.db #0x00	; 0
	.db #0x00	; 0
	.db #0x00	; 0
	.db #0x00	; 0
	.db #0x00	; 0
	.db #0x00	; 0
	.db #0x00	; 0
	.db #0x00	; 0
	.db #0x00	; 0
	.db #0x00	; 0
	.db #0x00	; 0
	.db #0x00	; 0
	.db #0x00	; 0
	.db #0x00	; 0
	.db #0x00	; 0
	.db #0x00	; 0
	.db #0x00	; 0
	.db #0x00	; 0
	.db #0x00	; 0
	.db #0x00	; 0
	.db #0x00	; 0
	.db #0x00	; 0
	.db #0x00	; 0
	.db #0x00	; 0
	.db #0x00	; 0
G$tiles_colors$0_0$0 == .
_tiles_colors:
	.db #0x11	; 17
	.db #0x11	; 17
	.db #0x11	; 17
	.db #0x11	; 17
	.db #0x11	; 17
	.db #0x11	; 17
	.db #0x11	; 17
	.db #0x11	; 17
	.db #0x11	; 17
	.db #0x11	; 17
	.db #0x11	; 17
	.db #0x11	; 17
	.db #0x11	; 17
	.db #0x11	; 17
	.db #0x11	; 17
	.db #0x11	; 17
	.db #0x11	; 17
	.db #0x11	; 17
	.db #0x11	; 17
	.db #0x11	; 17
	.db #0x11	; 17
	.db #0x11	; 17
	.db #0x11	; 17
	.db #0x11	; 17
	.db #0x11	; 17
	.db #0x11	; 17
	.db #0x11	; 17
	.db #0x11	; 17
	.db #0x11	; 17
	.db #0x11	; 17
	.db #0x11	; 17
	.db #0x11	; 17
	.db #0x11	; 17
	.db #0x11	; 17
	.db #0x11	; 17
	.db #0x11	; 17
	.db #0x11	; 17
	.db #0x11	; 17
	.db #0x11	; 17
	.db #0x11	; 17
	.db #0xf4	; 244
	.db #0xf4	; 244
	.db #0x1f	; 31
	.db #0x1f	; 31
	.db #0xf1	; 241
	.db #0xf1	; 241
	.db #0x11	; 17
	.db #0x11	; 17
	.db #0xf4	; 244
	.db #0xf4	; 244
	.db #0xf1	; 241
	.db #0xf1	; 241
	.db #0xf1	; 241
	.db #0xf1	; 241
	.db #0x11	; 17
	.db #0x11	; 17
	.db #0x54	; 84	'T'
	.db #0x54	; 84	'T'
	.db #0x54	; 84	'T'
	.db #0x54	; 84	'T'
	.db #0x54	; 84	'T'
	.db #0x54	; 84	'T'
	.db #0x14	; 20
	.db #0x11	; 17
	.db #0x14	; 20
	.db #0x14	; 20
	.db #0x14	; 20
	.db #0x14	; 20
	.db #0x14	; 20
	.db #0x14	; 20
	.db #0x14	; 20
	.db #0x11	; 17
	.db #0xf7	; 247
	.db #0xf7	; 247
	.db #0xf7	; 247
	.db #0xf7	; 247
	.db #0xf7	; 247
	.db #0xf7	; 247
	.db #0x11	; 17
	.db #0x11	; 17
	.db #0x17	; 23
	.db #0x17	; 23
	.db #0x17	; 23
	.db #0x17	; 23
	.db #0x17	; 23
	.db #0x17	; 23
	.db #0x11	; 17
	.db #0x11	; 17
	.db #0x11	; 17
	.db #0x11	; 17
	.db #0x11	; 17
	.db #0x11	; 17
	.db #0x11	; 17
	.db #0x11	; 17
	.db #0x11	; 17
	.db #0x11	; 17
	.db #0x11	; 17
	.db #0x14	; 20
	.db #0x11	; 17
	.db #0x11	; 17
	.db #0x11	; 17
	.db #0x11	; 17
	.db #0x11	; 17
	.db #0x11	; 17
	.db #0x11	; 17
	.db #0x14	; 20
	.db #0x11	; 17
	.db #0x14	; 20
	.db #0x11	; 17
	.db #0x14	; 20
	.db #0x11	; 17
	.db #0x11	; 17
	.db #0x1a	; 26
	.db #0x11	; 17
	.db #0x1a	; 26
	.db #0x11	; 17
	.db #0x1a	; 26
	.db #0x11	; 17
	.db #0x1a	; 26
	.db #0x11	; 17
	.db #0x1a	; 26
	.db #0x11	; 17
	.db #0x1a	; 26
	.db #0x11	; 17
	.db #0x1a	; 26
	.db #0x11	; 17
	.db #0x1a	; 26
	.db #0x11	; 17
	.db #0x11	; 17
	.db #0x11	; 17
	.db #0x11	; 17
	.db #0x11	; 17
	.db #0x11	; 17
	.db #0x11	; 17
	.db #0x11	; 17
	.db #0x11	; 17
	.db #0x11	; 17
	.db #0x11	; 17
	.db #0x11	; 17
	.db #0x11	; 17
	.db #0x11	; 17
	.db #0x11	; 17
	.db #0x11	; 17
	.db #0x11	; 17
	.db #0x11	; 17
	.db #0x11	; 17
	.db #0x11	; 17
	.db #0x11	; 17
	.db #0x11	; 17
	.db #0x11	; 17
	.db #0x11	; 17
	.db #0x11	; 17
	.db #0x11	; 17
	.db #0x11	; 17
	.db #0x11	; 17
	.db #0x11	; 17
	.db #0x11	; 17
	.db #0x11	; 17
	.db #0x11	; 17
	.db #0x11	; 17
	.db #0x11	; 17
	.db #0x11	; 17
	.db #0x11	; 17
	.db #0x11	; 17
	.db #0x11	; 17
	.db #0x11	; 17
	.db #0x11	; 17
	.db #0x11	; 17
	.db #0x11	; 17
	.db #0x11	; 17
	.db #0x11	; 17
	.db #0x11	; 17
	.db #0x11	; 17
	.db #0x11	; 17
	.db #0x11	; 17
	.db #0x11	; 17
	.db #0x11	; 17
	.db #0x11	; 17
	.db #0x11	; 17
	.db #0x11	; 17
	.db #0x11	; 17
	.db #0x11	; 17
	.db #0x11	; 17
	.db #0x11	; 17
	.db #0x11	; 17
	.db #0x11	; 17
	.db #0x11	; 17
	.db #0x11	; 17
	.db #0x11	; 17
	.db #0x11	; 17
	.db #0x11	; 17
	.db #0x11	; 17
	.db #0x11	; 17
	.db #0x11	; 17
	.db #0x11	; 17
	.db #0x11	; 17
	.db #0x11	; 17
	.db #0x11	; 17
	.db #0x11	; 17
	.db #0x11	; 17
	.db #0x11	; 17
	.db #0x11	; 17
	.db #0x11	; 17
	.db #0x11	; 17
	.db #0x11	; 17
	.db #0x11	; 17
	.db #0x11	; 17
	.db #0x11	; 17
	.db #0x11	; 17
	.db #0x11	; 17
	.db #0x11	; 17
	.db #0x11	; 17
	.db #0x11	; 17
	.db #0x11	; 17
	.db #0x11	; 17
	.db #0x11	; 17
	.db #0x11	; 17
	.db #0x11	; 17
	.db #0x11	; 17
	.db #0x11	; 17
	.db #0x11	; 17
	.db #0x11	; 17
	.db #0x11	; 17
	.db #0x11	; 17
	.db #0x11	; 17
	.db #0x11	; 17
	.db #0x11	; 17
	.db #0x11	; 17
	.db #0x11	; 17
	.db #0x11	; 17
	.db #0x11	; 17
	.db #0x11	; 17
	.db #0x11	; 17
	.db #0x11	; 17
	.db #0x11	; 17
	.db #0x11	; 17
	.db #0x11	; 17
	.db #0x11	; 17
	.db #0x11	; 17
	.db #0x11	; 17
	.db #0x11	; 17
	.db #0x11	; 17
	.db #0x11	; 17
	.db #0x11	; 17
	.db #0x11	; 17
	.db #0x11	; 17
	.db #0x11	; 17
	.db #0x11	; 17
	.db #0x11	; 17
	.db #0x11	; 17
	.db #0x11	; 17
	.db #0x11	; 17
	.db #0x11	; 17
	.db #0x11	; 17
	.db #0x11	; 17
	.db #0x11	; 17
	.db #0x11	; 17
	.db #0x11	; 17
	.db #0x11	; 17
	.db #0xf1	; 241
	.db #0xf1	; 241
	.db #0xf1	; 241
	.db #0xf1	; 241
	.db #0xf1	; 241
	.db #0x11	; 17
	.db #0x11	; 17
	.db #0x11	; 17
	.db #0xf1	; 241
	.db #0xf1	; 241
	.db #0x1f	; 31
	.db #0xf1	; 241
	.db #0xf1	; 241
	.db #0x11	; 17
	.db #0x11	; 17
	.db #0x11	; 17
	.db #0xf1	; 241
	.db #0xf1	; 241
	.db #0xf1	; 241
	.db #0xf1	; 241
	.db #0xf1	; 241
	.db #0x11	; 17
	.db #0x11	; 17
	.db #0x11	; 17
	.db #0xf1	; 241
	.db #0x1f	; 31
	.db #0x1f	; 31
	.db #0xf1	; 241
	.db #0xf1	; 241
	.db #0x11	; 17
	.db #0x11	; 17
	.db #0x11	; 17
	.db #0xf1	; 241
	.db #0xf1	; 241
	.db #0xf1	; 241
	.db #0xf1	; 241
	.db #0xf1	; 241
	.db #0x11	; 17
	.db #0x11	; 17
	.db #0x11	; 17
	.db #0x1f	; 31
	.db #0x1f	; 31
	.db #0x1f	; 31
	.db #0x11	; 17
	.db #0x11	; 17
	.db #0x11	; 17
	.db #0x11	; 17
	.db #0x11	; 17
	.db #0xf1	; 241
	.db #0xf1	; 241
	.db #0xf1	; 241
	.db #0xf1	; 241
	.db #0xf1	; 241
	.db #0x11	; 17
	.db #0x11	; 17
	.db #0x11	; 17
	.db #0xf1	; 241
	.db #0xf1	; 241
	.db #0xf1	; 241
	.db #0x11	; 17
	.db #0x11	; 17
	.db #0x11	; 17
	.db #0x11	; 17
	.db #0x11	; 17
	.db #0xf1	; 241
	.db #0xf1	; 241
	.db #0xf1	; 241
	.db #0xf1	; 241
	.db #0xf1	; 241
	.db #0x11	; 17
	.db #0x11	; 17
	.db #0x11	; 17
	.db #0xf1	; 241
	.db #0xf1	; 241
	.db #0xf1	; 241
	.db #0xf1	; 241
	.db #0xf1	; 241
	.db #0x11	; 17
	.db #0x11	; 17
	.db #0x11	; 17
	.db #0x11	; 17
	.db #0x11	; 17
	.db #0x11	; 17
	.db #0x11	; 17
	.db #0x11	; 17
	.db #0x11	; 17
	.db #0x11	; 17
	.db #0x11	; 17
	.db #0x11	; 17
	.db #0x11	; 17
	.db #0x11	; 17
	.db #0x11	; 17
	.db #0x11	; 17
	.db #0x11	; 17
	.db #0x11	; 17
	.db #0x11	; 17
	.db #0x11	; 17
	.db #0x11	; 17
	.db #0x11	; 17
	.db #0x11	; 17
	.db #0x11	; 17
	.db #0x11	; 17
	.db #0x11	; 17
	.db #0x11	; 17
	.db #0x11	; 17
	.db #0x11	; 17
	.db #0x11	; 17
	.db #0x11	; 17
	.db #0x11	; 17
	.db #0x11	; 17
	.db #0x11	; 17
	.db #0x11	; 17
	.db #0x11	; 17
	.db #0x11	; 17
	.db #0x11	; 17
	.db #0x11	; 17
	.db #0x11	; 17
	.db #0x11	; 17
	.db #0x11	; 17
	.db #0x11	; 17
	.db #0x11	; 17
	.db #0x11	; 17
	.db #0x11	; 17
	.db #0x11	; 17
	.db #0x11	; 17
	.db #0x11	; 17
	.db #0x11	; 17
	.db #0x11	; 17
	.db #0x11	; 17
	.db #0x11	; 17
	.db #0x11	; 17
	.db #0x11	; 17
	.db #0x11	; 17
	.db #0x11	; 17
	.db #0x11	; 17
	.db #0x11	; 17
	.db #0x11	; 17
	.db #0x11	; 17
	.db #0x11	; 17
	.db #0x11	; 17
	.db #0x11	; 17
	.db #0x11	; 17
	.db #0x11	; 17
	.db #0x11	; 17
	.db #0x11	; 17
	.db #0x11	; 17
	.db #0x11	; 17
	.db #0x11	; 17
	.db #0x11	; 17
	.db #0x11	; 17
	.db #0x11	; 17
	.db #0x11	; 17
	.db #0x11	; 17
	.db #0x11	; 17
	.db #0x11	; 17
	.db #0x11	; 17
	.db #0x11	; 17
	.db #0x11	; 17
	.db #0x11	; 17
	.db #0x11	; 17
	.db #0x11	; 17
	.db #0x11	; 17
	.db #0x11	; 17
	.db #0x11	; 17
	.db #0x11	; 17
	.db #0x11	; 17
	.db #0x11	; 17
	.db #0x11	; 17
	.db #0x11	; 17
	.db #0x11	; 17
	.db #0x11	; 17
	.db #0x11	; 17
	.db #0x11	; 17
	.db #0x11	; 17
	.db #0x11	; 17
	.db #0x11	; 17
	.db #0x11	; 17
	.db #0x11	; 17
	.db #0x11	; 17
	.db #0x11	; 17
	.db #0x11	; 17
	.db #0x11	; 17
	.db #0x11	; 17
	.db #0x11	; 17
	.db #0x11	; 17
	.db #0x11	; 17
	.db #0x11	; 17
	.db #0x11	; 17
	.db #0x11	; 17
	.db #0x11	; 17
	.db #0x11	; 17
	.db #0x11	; 17
	.db #0x11	; 17
	.db #0x11	; 17
	.db #0x11	; 17
	.db #0x11	; 17
	.db #0x11	; 17
	.db #0x11	; 17
	.db #0x11	; 17
	.db #0x11	; 17
	.db #0x11	; 17
	.db #0x11	; 17
	.db #0x11	; 17
	.db #0x11	; 17
	.db #0x11	; 17
	.db #0x11	; 17
	.db #0x11	; 17
	.db #0x11	; 17
	.db #0x11	; 17
	.db #0x11	; 17
	.db #0x11	; 17
	.db #0x11	; 17
	.db #0x11	; 17
	.db #0x11	; 17
	.db #0x11	; 17
	.db #0x11	; 17
	.db #0x11	; 17
	.db #0x11	; 17
	.db #0x11	; 17
	.db #0x11	; 17
	.db #0x11	; 17
	.db #0x11	; 17
	.db #0x11	; 17
	.db #0x11	; 17
	.db #0x11	; 17
	.db #0x11	; 17
	.db #0x11	; 17
	.db #0x11	; 17
	.db #0x11	; 17
	.db #0x11	; 17
	.db #0x11	; 17
	.db #0x11	; 17
	.db #0x11	; 17
	.db #0x11	; 17
	.db #0x11	; 17
	.db #0x11	; 17
	.db #0x11	; 17
	.db #0x11	; 17
	.db #0x11	; 17
	.db #0x11	; 17
	.db #0x11	; 17
	.db #0x11	; 17
	.db #0x11	; 17
	.db #0x11	; 17
	.db #0x11	; 17
	.db #0x11	; 17
	.db #0x11	; 17
	.db #0x11	; 17
	.db #0x11	; 17
	.db #0x11	; 17
	.db #0x11	; 17
	.db #0x11	; 17
	.db #0x11	; 17
	.db #0x31	; 49	'1'
	.db #0x31	; 49	'1'
	.db #0x31	; 49	'1'
	.db #0x31	; 49	'1'
	.db #0x31	; 49	'1'
	.db #0x31	; 49	'1'
	.db #0x31	; 49	'1'
	.db #0x31	; 49	'1'
	.db #0x31	; 49	'1'
	.db #0x11	; 17
	.db #0x11	; 17
	.db #0x31	; 49	'1'
	.db #0x31	; 49	'1'
	.db #0x31	; 49	'1'
	.db #0x31	; 49	'1'
	.db #0x31	; 49	'1'
	.db #0x31	; 49	'1'
	.db #0x31	; 49	'1'
	.db #0x31	; 49	'1'
	.db #0x31	; 49	'1'
	.db #0x31	; 49	'1'
	.db #0x31	; 49	'1'
	.db #0x31	; 49	'1'
	.db #0x31	; 49	'1'
	.db #0x31	; 49	'1'
	.db #0x31	; 49	'1'
	.db #0x31	; 49	'1'
	.db #0x31	; 49	'1'
	.db #0x31	; 49	'1'
	.db #0x31	; 49	'1'
	.db #0x31	; 49	'1'
	.db #0x31	; 49	'1'
	.db #0x31	; 49	'1'
	.db #0x31	; 49	'1'
	.db #0x31	; 49	'1'
	.db #0x31	; 49	'1'
	.db #0x31	; 49	'1'
	.db #0x31	; 49	'1'
	.db #0x31	; 49	'1'
	.db #0x31	; 49	'1'
	.db #0x11	; 17
	.db #0x11	; 17
	.db #0x31	; 49	'1'
	.db #0x31	; 49	'1'
	.db #0x31	; 49	'1'
	.db #0x11	; 17
	.db #0x11	; 17
	.db #0x11	; 17
	.db #0x31	; 49	'1'
	.db #0x31	; 49	'1'
	.db #0x31	; 49	'1'
	.db #0x31	; 49	'1'
	.db #0x31	; 49	'1'
	.db #0x31	; 49	'1'
	.db #0x31	; 49	'1'
	.db #0x31	; 49	'1'
	.db #0x31	; 49	'1'
	.db #0x31	; 49	'1'
	.db #0x31	; 49	'1'
	.db #0x31	; 49	'1'
	.db #0x31	; 49	'1'
	.db #0x31	; 49	'1'
	.db #0x31	; 49	'1'
	.db #0x31	; 49	'1'
	.db #0x31	; 49	'1'
	.db #0x31	; 49	'1'
	.db #0x31	; 49	'1'
	.db #0x31	; 49	'1'
	.db #0x31	; 49	'1'
	.db #0x31	; 49	'1'
	.db #0x31	; 49	'1'
	.db #0x31	; 49	'1'
	.db #0x31	; 49	'1'
	.db #0x31	; 49	'1'
	.db #0x31	; 49	'1'
	.db #0x31	; 49	'1'
	.db #0x31	; 49	'1'
	.db #0x31	; 49	'1'
	.db #0x31	; 49	'1'
	.db #0x31	; 49	'1'
	.db #0x11	; 17
	.db #0x11	; 17
	.db #0x11	; 17
	.db #0x11	; 17
	.db #0x11	; 17
	.db #0x11	; 17
	.db #0x11	; 17
	.db #0x11	; 17
	.db #0x11	; 17
	.db #0x11	; 17
	.db #0x11	; 17
	.db #0x11	; 17
	.db #0x11	; 17
	.db #0x11	; 17
	.db #0x11	; 17
	.db #0x11	; 17
	.db #0x11	; 17
	.db #0x11	; 17
	.db #0x11	; 17
	.db #0x11	; 17
	.db #0x11	; 17
	.db #0x11	; 17
	.db #0x11	; 17
	.db #0x11	; 17
	.db #0x11	; 17
	.db #0x11	; 17
	.db #0x11	; 17
	.db #0x11	; 17
	.db #0x11	; 17
	.db #0x11	; 17
	.db #0x11	; 17
	.db #0x11	; 17
	.db #0x11	; 17
	.db #0x11	; 17
	.db #0x11	; 17
	.db #0x11	; 17
	.db #0x11	; 17
	.db #0x11	; 17
	.db #0x11	; 17
	.db #0x11	; 17
	.db #0x11	; 17
	.db #0x11	; 17
	.db #0x11	; 17
	.db #0x11	; 17
	.db #0x11	; 17
	.db #0x11	; 17
	.db #0x11	; 17
	.db #0x11	; 17
	.db #0x11	; 17
	.db #0x11	; 17
	.db #0x11	; 17
	.db #0x11	; 17
	.db #0x11	; 17
	.db #0x11	; 17
	.db #0x11	; 17
	.db #0x11	; 17
	.db #0x11	; 17
	.db #0x11	; 17
	.db #0x11	; 17
	.db #0x11	; 17
	.db #0x11	; 17
	.db #0x11	; 17
	.db #0x11	; 17
	.db #0x11	; 17
	.db #0x11	; 17
	.db #0x11	; 17
	.db #0x11	; 17
	.db #0x11	; 17
	.db #0x11	; 17
	.db #0x11	; 17
	.db #0x11	; 17
	.db #0x11	; 17
	.db #0x11	; 17
	.db #0x11	; 17
	.db #0x11	; 17
	.db #0x11	; 17
	.db #0x11	; 17
	.db #0x11	; 17
	.db #0x11	; 17
	.db #0x11	; 17
	.db #0x11	; 17
	.db #0x11	; 17
	.db #0x11	; 17
	.db #0x11	; 17
	.db #0x11	; 17
	.db #0x11	; 17
	.db #0x11	; 17
	.db #0x11	; 17
	.db #0x11	; 17
	.db #0x11	; 17
	.db #0x11	; 17
	.db #0x11	; 17
	.db #0x11	; 17
	.db #0x11	; 17
	.db #0x11	; 17
	.db #0x11	; 17
	.db #0x11	; 17
	.db #0x11	; 17
	.db #0x11	; 17
	.db #0x11	; 17
	.db #0x11	; 17
	.db #0x11	; 17
	.db #0x11	; 17
	.db #0x11	; 17
	.db #0x11	; 17
	.db #0x11	; 17
	.db #0x11	; 17
	.db #0x11	; 17
	.db #0x11	; 17
	.db #0x11	; 17
	.db #0x11	; 17
	.db #0x11	; 17
	.db #0x11	; 17
	.db #0x11	; 17
	.db #0x11	; 17
	.db #0x11	; 17
	.db #0x11	; 17
	.db #0x11	; 17
	.db #0x11	; 17
	.db #0x11	; 17
	.db #0x11	; 17
	.db #0x11	; 17
	.db #0x11	; 17
	.db #0x11	; 17
	.db #0x11	; 17
	.db #0x11	; 17
	.db #0x11	; 17
	.db #0x11	; 17
	.db #0x11	; 17
	.db #0x11	; 17
	.db #0x11	; 17
	.db #0x11	; 17
	.db #0x11	; 17
	.db #0x11	; 17
	.db #0x11	; 17
	.db #0x11	; 17
	.db #0x11	; 17
	.db #0x11	; 17
	.db #0x11	; 17
	.db #0x11	; 17
	.db #0x11	; 17
	.db #0x11	; 17
	.db #0x11	; 17
	.db #0x11	; 17
	.db #0x11	; 17
	.db #0x11	; 17
	.db #0x11	; 17
	.db #0x11	; 17
	.db #0x11	; 17
	.db #0x11	; 17
	.db #0x11	; 17
	.db #0x11	; 17
	.db #0x11	; 17
	.db #0x11	; 17
	.db #0x11	; 17
	.db #0x11	; 17
	.db #0x11	; 17
	.db #0x11	; 17
	.db #0x11	; 17
	.db #0x11	; 17
	.db #0x11	; 17
	.db #0x11	; 17
	.db #0x11	; 17
	.db #0x11	; 17
	.db #0x11	; 17
	.db #0x11	; 17
	.db #0x11	; 17
	.db #0x11	; 17
	.db #0x11	; 17
	.db #0x11	; 17
	.db #0x11	; 17
	.db #0x11	; 17
	.db #0x11	; 17
	.db #0x11	; 17
	.db #0x11	; 17
	.db #0x11	; 17
	.db #0x1c	; 28
	.db #0x1c	; 28
	.db #0x1c	; 28
	.db #0x1c	; 28
	.db #0x1c	; 28
	.db #0x11	; 17
	.db #0x11	; 17
	.db #0x11	; 17
	.db #0x1c	; 28
	.db #0x1c	; 28
	.db #0x1c	; 28
	.db #0x1c	; 28
	.db #0x1c	; 28
	.db #0x11	; 17
	.db #0x11	; 17
	.db #0x11	; 17
	.db #0x1c	; 28
	.db #0x1c	; 28
	.db #0x1c	; 28
	.db #0x1c	; 28
	.db #0x1c	; 28
	.db #0x11	; 17
	.db #0x11	; 17
	.db #0x11	; 17
	.db #0x1c	; 28
	.db #0x1c	; 28
	.db #0x1c	; 28
	.db #0x1c	; 28
	.db #0x1c	; 28
	.db #0x11	; 17
	.db #0x11	; 17
	.db #0x11	; 17
	.db #0x1c	; 28
	.db #0x1c	; 28
	.db #0x1c	; 28
	.db #0x1c	; 28
	.db #0x1c	; 28
	.db #0x11	; 17
	.db #0x11	; 17
	.db #0x11	; 17
	.db #0x11	; 17
	.db #0x11	; 17
	.db #0x1c	; 28
	.db #0x1c	; 28
	.db #0x1c	; 28
	.db #0x11	; 17
	.db #0x11	; 17
	.db #0x11	; 17
	.db #0x1c	; 28
	.db #0x1c	; 28
	.db #0x1c	; 28
	.db #0x1c	; 28
	.db #0x1c	; 28
	.db #0x11	; 17
	.db #0x11	; 17
	.db #0x11	; 17
	.db #0x1c	; 28
	.db #0x1c	; 28
	.db #0x1c	; 28
	.db #0x1c	; 28
	.db #0x1c	; 28
	.db #0x11	; 17
	.db #0x11	; 17
	.db #0x11	; 17
	.db #0x1c	; 28
	.db #0x1c	; 28
	.db #0x1c	; 28
	.db #0x1c	; 28
	.db #0x1c	; 28
	.db #0x11	; 17
	.db #0x11	; 17
	.db #0x11	; 17
	.db #0x1c	; 28
	.db #0x1c	; 28
	.db #0x1c	; 28
	.db #0x1c	; 28
	.db #0x1c	; 28
	.db #0x11	; 17
	.db #0x11	; 17
	.db #0x11	; 17
	.db #0x11	; 17
	.db #0x11	; 17
	.db #0x11	; 17
	.db #0x11	; 17
	.db #0x11	; 17
	.db #0x11	; 17
	.db #0x11	; 17
	.db #0x11	; 17
	.db #0x11	; 17
	.db #0x11	; 17
	.db #0x11	; 17
	.db #0x11	; 17
	.db #0x11	; 17
	.db #0x11	; 17
	.db #0x11	; 17
	.db #0x11	; 17
	.db #0x11	; 17
	.db #0x11	; 17
	.db #0x11	; 17
	.db #0x11	; 17
	.db #0x11	; 17
	.db #0x11	; 17
	.db #0x11	; 17
	.db #0x11	; 17
	.db #0x11	; 17
	.db #0x11	; 17
	.db #0x11	; 17
	.db #0x11	; 17
	.db #0x11	; 17
	.db #0x11	; 17
	.db #0x11	; 17
	.db #0x11	; 17
	.db #0x11	; 17
	.db #0x11	; 17
	.db #0x11	; 17
	.db #0x11	; 17
	.db #0x11	; 17
	.db #0x11	; 17
	.db #0x11	; 17
	.db #0x11	; 17
	.db #0x11	; 17
	.db #0x11	; 17
	.db #0x11	; 17
	.db #0x11	; 17
	.db #0x11	; 17
	.db #0x11	; 17
	.db #0x11	; 17
	.db #0x11	; 17
	.db #0x11	; 17
	.db #0x11	; 17
	.db #0x11	; 17
	.db #0x11	; 17
	.db #0x11	; 17
	.db #0x11	; 17
	.db #0x11	; 17
	.db #0x11	; 17
	.db #0x11	; 17
	.db #0x11	; 17
	.db #0x11	; 17
	.db #0x11	; 17
	.db #0x11	; 17
	.db #0x11	; 17
	.db #0x11	; 17
	.db #0x11	; 17
	.db #0x11	; 17
	.db #0x11	; 17
	.db #0x11	; 17
	.db #0x11	; 17
	.db #0x11	; 17
	.db #0x11	; 17
	.db #0x11	; 17
	.db #0x11	; 17
	.db #0x11	; 17
	.db #0x11	; 17
	.db #0x11	; 17
	.db #0x11	; 17
	.db #0x11	; 17
	.db #0x11	; 17
	.db #0x11	; 17
	.db #0x11	; 17
	.db #0x11	; 17
	.db #0x11	; 17
	.db #0x11	; 17
	.db #0x11	; 17
	.db #0x11	; 17
	.db #0x11	; 17
	.db #0x11	; 17
	.db #0x11	; 17
	.db #0x11	; 17
	.db #0x11	; 17
	.db #0x11	; 17
	.db #0x11	; 17
	.db #0x11	; 17
	.db #0x11	; 17
	.db #0x11	; 17
	.db #0x11	; 17
	.db #0x11	; 17
	.db #0x11	; 17
	.db #0x11	; 17
	.db #0x11	; 17
	.db #0x11	; 17
	.db #0x11	; 17
	.db #0x11	; 17
	.db #0x11	; 17
	.db #0x11	; 17
	.db #0x11	; 17
	.db #0x11	; 17
	.db #0x11	; 17
	.db #0x11	; 17
	.db #0x11	; 17
	.db #0x11	; 17
	.db #0x11	; 17
	.db #0x11	; 17
	.db #0x11	; 17
	.db #0x11	; 17
	.db #0x11	; 17
	.db #0x11	; 17
	.db #0x11	; 17
	.db #0x11	; 17
	.db #0x11	; 17
	.db #0x11	; 17
	.db #0x11	; 17
	.db #0x11	; 17
	.db #0x11	; 17
	.db #0x11	; 17
	.db #0x11	; 17
	.db #0x11	; 17
	.db #0x11	; 17
	.db #0x11	; 17
	.db #0x11	; 17
	.db #0x11	; 17
	.db #0x11	; 17
	.db #0x11	; 17
	.db #0x11	; 17
	.db #0x11	; 17
	.db #0x11	; 17
	.db #0x11	; 17
	.db #0x11	; 17
	.db #0x11	; 17
	.db #0x11	; 17
	.db #0x11	; 17
	.db #0x11	; 17
	.db #0x11	; 17
	.db #0x11	; 17
	.db #0x11	; 17
	.db #0x11	; 17
	.db #0x11	; 17
	.db #0x11	; 17
	.db #0x11	; 17
	.db #0x11	; 17
	.db #0x11	; 17
	.db #0x11	; 17
	.db #0x11	; 17
	.db #0x11	; 17
	.db #0x11	; 17
	.db #0x11	; 17
	.db #0x11	; 17
	.db #0x11	; 17
	.db #0x11	; 17
	.db #0x11	; 17
	.db #0x11	; 17
	.db #0x11	; 17
	.db #0x11	; 17
	.db #0x11	; 17
	.db #0x11	; 17
	.db #0x11	; 17
	.db #0x11	; 17
	.db #0x11	; 17
	.db #0x11	; 17
	.db #0x11	; 17
	.db #0x11	; 17
	.db #0x11	; 17
	.db #0x11	; 17
	.db #0x11	; 17
	.db #0x11	; 17
	.db #0x11	; 17
	.db #0xf1	; 241
	.db #0xf1	; 241
	.db #0xf1	; 241
	.db #0xf1	; 241
	.db #0xf1	; 241
	.db #0xf1	; 241
	.db #0xf1	; 241
	.db #0x11	; 17
	.db #0x11	; 17
	.db #0x11	; 17
	.db #0x11	; 17
	.db #0x11	; 17
	.db #0x11	; 17
	.db #0x11	; 17
	.db #0x11	; 17
	.db #0x11	; 17
	.db #0xf1	; 241
	.db #0xf1	; 241
	.db #0xf1	; 241
	.db #0xf1	; 241
	.db #0xf1	; 241
	.db #0x11	; 17
	.db #0xf1	; 241
	.db #0x11	; 17
	.db #0xf1	; 241
	.db #0xf1	; 241
	.db #0xf1	; 241
	.db #0x11	; 17
	.db #0x11	; 17
	.db #0x11	; 17
	.db #0x11	; 17
	.db #0x11	; 17
	.db #0xf1	; 241
	.db #0xf1	; 241
	.db #0xf1	; 241
	.db #0xf1	; 241
	.db #0xf1	; 241
	.db #0xf1	; 241
	.db #0xf1	; 241
	.db #0x11	; 17
	.db #0xf1	; 241
	.db #0xf1	; 241
	.db #0xf1	; 241
	.db #0xf1	; 241
	.db #0xf1	; 241
	.db #0xf1	; 241
	.db #0xf1	; 241
	.db #0x11	; 17
	.db #0xf1	; 241
	.db #0xf1	; 241
	.db #0xf1	; 241
	.db #0xf1	; 241
	.db #0xf1	; 241
	.db #0xf1	; 241
	.db #0xf1	; 241
	.db #0x11	; 17
	.db #0xf1	; 241
	.db #0xf1	; 241
	.db #0xf1	; 241
	.db #0xf1	; 241
	.db #0xf1	; 241
	.db #0xf1	; 241
	.db #0xf1	; 241
	.db #0x11	; 17
	.db #0xf1	; 241
	.db #0xf1	; 241
	.db #0xf1	; 241
	.db #0x11	; 17
	.db #0x11	; 17
	.db #0x11	; 17
	.db #0x11	; 17
	.db #0x11	; 17
	.db #0xf1	; 241
	.db #0xf1	; 241
	.db #0xf1	; 241
	.db #0xf1	; 241
	.db #0xf1	; 241
	.db #0xf1	; 241
	.db #0xf1	; 241
	.db #0x11	; 17
	.db #0xf1	; 241
	.db #0xf1	; 241
	.db #0xf1	; 241
	.db #0xf1	; 241
	.db #0xf1	; 241
	.db #0xf1	; 241
	.db #0xf1	; 241
	.db #0x11	; 17
	.db #0x11	; 17
	.db #0xf1	; 241
	.db #0xf1	; 241
	.db #0xf1	; 241
	.db #0xf1	; 241
	.db #0xf1	; 241
	.db #0x11	; 17
	.db #0x11	; 17
	.db #0x11	; 17
	.db #0xf1	; 241
	.db #0xf1	; 241
	.db #0xf1	; 241
	.db #0xf1	; 241
	.db #0xf1	; 241
	.db #0x11	; 17
	.db #0x11	; 17
	.db #0x11	; 17
	.db #0x11	; 17
	.db #0x11	; 17
	.db #0x11	; 17
	.db #0x11	; 17
	.db #0xf1	; 241
	.db #0xf1	; 241
	.db #0xf1	; 241
	.db #0x11	; 17
	.db #0x11	; 17
	.db #0x11	; 17
	.db #0xf1	; 241
	.db #0x11	; 17
	.db #0x11	; 17
	.db #0x11	; 17
	.db #0x11	; 17
	.db #0x11	; 17
	.db #0x11	; 17
	.db #0x11	; 17
	.db #0x11	; 17
	.db #0x11	; 17
	.db #0xf1	; 241
	.db #0xf1	; 241
	.db #0x11	; 17
	.db #0x11	; 17
	.db #0xf1	; 241
	.db #0xf1	; 241
	.db #0xf1	; 241
	.db #0xf1	; 241
	.db #0xf1	; 241
	.db #0x11	; 17
	.db #0x11	; 17
	.db #0xf1	; 241
	.db #0xf1	; 241
	.db #0xf1	; 241
	.db #0xf1	; 241
	.db #0xf1	; 241
	.db #0xf1	; 241
	.db #0xf1	; 241
	.db #0x11	; 17
	.db #0xf1	; 241
	.db #0xf1	; 241
	.db #0xf1	; 241
	.db #0xf1	; 241
	.db #0xf1	; 241
	.db #0xf1	; 241
	.db #0xf1	; 241
	.db #0x11	; 17
	.db #0xf1	; 241
	.db #0xf1	; 241
	.db #0xf1	; 241
	.db #0xf1	; 241
	.db #0xf1	; 241
	.db #0xf1	; 241
	.db #0xf1	; 241
	.db #0x11	; 17
	.db #0xf1	; 241
	.db #0xf1	; 241
	.db #0xf1	; 241
	.db #0xf1	; 241
	.db #0xf1	; 241
	.db #0xf1	; 241
	.db #0xf1	; 241
	.db #0x11	; 17
	.db #0xf1	; 241
	.db #0xf1	; 241
	.db #0xf1	; 241
	.db #0xf1	; 241
	.db #0xf1	; 241
	.db #0xf1	; 241
	.db #0xf1	; 241
	.db #0x11	; 17
	.db #0xf1	; 241
	.db #0xf1	; 241
	.db #0xf1	; 241
	.db #0xf1	; 241
	.db #0xf1	; 241
	.db #0xf1	; 241
	.db #0xf1	; 241
	.db #0x11	; 17
	.db #0xf1	; 241
	.db #0xf1	; 241
	.db #0xf1	; 241
	.db #0xf1	; 241
	.db #0xf1	; 241
	.db #0xf1	; 241
	.db #0xf1	; 241
	.db #0x11	; 17
	.db #0xf1	; 241
	.db #0xf1	; 241
	.db #0xf1	; 241
	.db #0xf1	; 241
	.db #0xf1	; 241
	.db #0xf1	; 241
	.db #0xf1	; 241
	.db #0x11	; 17
	.db #0xf1	; 241
	.db #0xf1	; 241
	.db #0xf1	; 241
	.db #0xf1	; 241
	.db #0xf1	; 241
	.db #0xf1	; 241
	.db #0xf1	; 241
	.db #0x11	; 17
	.db #0xf1	; 241
	.db #0xf1	; 241
	.db #0xf1	; 241
	.db #0xf1	; 241
	.db #0xf1	; 241
	.db #0xf1	; 241
	.db #0xf1	; 241
	.db #0x11	; 17
	.db #0x11	; 17
	.db #0x11	; 17
	.db #0xf1	; 241
	.db #0xf1	; 241
	.db #0x11	; 17
	.db #0xf1	; 241
	.db #0xf1	; 241
	.db #0x11	; 17
	.db #0x11	; 17
	.db #0x11	; 17
	.db #0xf1	; 241
	.db #0xf1	; 241
	.db #0x11	; 17
	.db #0xf1	; 241
	.db #0xf1	; 241
	.db #0xf1	; 241
	.db #0xf1	; 241
	.db #0xf1	; 241
	.db #0xf1	; 241
	.db #0xf1	; 241
	.db #0xf1	; 241
	.db #0xf1	; 241
	.db #0xf1	; 241
	.db #0x11	; 17
	.db #0x11	; 17
	.db #0x11	; 17
	.db #0xf1	; 241
	.db #0x11	; 17
	.db #0xf1	; 241
	.db #0x11	; 17
	.db #0x11	; 17
	.db #0x11	; 17
	.db #0xf1	; 241
	.db #0xf1	; 241
	.db #0xf1	; 241
	.db #0xf1	; 241
	.db #0xf1	; 241
	.db #0xf1	; 241
	.db #0xf1	; 241
	.db #0x11	; 17
	.db #0xf1	; 241
	.db #0xf1	; 241
	.db #0xf1	; 241
	.db #0xf1	; 241
	.db #0xf1	; 241
	.db #0x11	; 17
	.db #0xe1	; 225
	.db #0x11	; 17
	.db #0xf1	; 241
	.db #0xf1	; 241
	.db #0xf1	; 241
	.db #0xf1	; 241
	.db #0xf1	; 241
	.db #0xf1	; 241
	.db #0xf1	; 241
	.db #0x11	; 17
	.db #0xf1	; 241
	.db #0xf1	; 241
	.db #0xf1	; 241
	.db #0xf1	; 241
	.db #0xf1	; 241
	.db #0xf1	; 241
	.db #0xf1	; 241
	.db #0x11	; 17
	.db #0xf1	; 241
	.db #0xf1	; 241
	.db #0xf1	; 241
	.db #0xf1	; 241
	.db #0xf1	; 241
	.db #0xf1	; 241
	.db #0xf1	; 241
	.db #0x11	; 17
	.db #0xf1	; 241
	.db #0xf1	; 241
	.db #0xf1	; 241
	.db #0xf1	; 241
	.db #0xf1	; 241
	.db #0xf1	; 241
	.db #0xf1	; 241
	.db #0x11	; 17
	.db #0xf1	; 241
	.db #0xf1	; 241
	.db #0xf1	; 241
	.db #0xf1	; 241
	.db #0xf1	; 241
	.db #0xf1	; 241
	.db #0xf1	; 241
	.db #0x11	; 17
	.db #0xf1	; 241
	.db #0xf1	; 241
	.db #0xf1	; 241
	.db #0xf1	; 241
	.db #0xf1	; 241
	.db #0xf1	; 241
	.db #0xf1	; 241
	.db #0x11	; 17
	.db #0xf1	; 241
	.db #0xf1	; 241
	.db #0xf1	; 241
	.db #0xf1	; 241
	.db #0xf1	; 241
	.db #0xf1	; 241
	.db #0xf1	; 241
	.db #0x11	; 17
	.db #0xf1	; 241
	.db #0xf1	; 241
	.db #0xf1	; 241
	.db #0xf1	; 241
	.db #0xf1	; 241
	.db #0xf1	; 241
	.db #0xf1	; 241
	.db #0x11	; 17
	.db #0xf1	; 241
	.db #0xf1	; 241
	.db #0xf1	; 241
	.db #0xf1	; 241
	.db #0xf1	; 241
	.db #0xf1	; 241
	.db #0xf1	; 241
	.db #0x11	; 17
	.db #0xf1	; 241
	.db #0xf1	; 241
	.db #0xf1	; 241
	.db #0xf1	; 241
	.db #0xf1	; 241
	.db #0xf1	; 241
	.db #0xf1	; 241
	.db #0x11	; 17
	.db #0xf1	; 241
	.db #0xf1	; 241
	.db #0xf1	; 241
	.db #0xf1	; 241
	.db #0xf1	; 241
	.db #0xf1	; 241
	.db #0xf1	; 241
	.db #0x11	; 17
	.db #0xf1	; 241
	.db #0xf1	; 241
	.db #0xf1	; 241
	.db #0xf1	; 241
	.db #0xf1	; 241
	.db #0xf1	; 241
	.db #0xf1	; 241
	.db #0x11	; 17
	.db #0xf1	; 241
	.db #0xf1	; 241
	.db #0xf1	; 241
	.db #0xf1	; 241
	.db #0xf1	; 241
	.db #0xf1	; 241
	.db #0xf1	; 241
	.db #0x11	; 17
	.db #0xf1	; 241
	.db #0xf1	; 241
	.db #0xf1	; 241
	.db #0xf1	; 241
	.db #0xf1	; 241
	.db #0xf1	; 241
	.db #0xf1	; 241
	.db #0x11	; 17
	.db #0xf1	; 241
	.db #0xf1	; 241
	.db #0xf1	; 241
	.db #0xf1	; 241
	.db #0xf1	; 241
	.db #0xf1	; 241
	.db #0xf1	; 241
	.db #0x11	; 17
	.db #0xf1	; 241
	.db #0xf1	; 241
	.db #0xf1	; 241
	.db #0xf1	; 241
	.db #0xf1	; 241
	.db #0xf1	; 241
	.db #0xf1	; 241
	.db #0x11	; 17
	.db #0xf1	; 241
	.db #0xf1	; 241
	.db #0xf1	; 241
	.db #0xf1	; 241
	.db #0xf1	; 241
	.db #0xf1	; 241
	.db #0xf1	; 241
	.db #0x11	; 17
	.db #0xf1	; 241
	.db #0xf1	; 241
	.db #0xf1	; 241
	.db #0xf1	; 241
	.db #0xf1	; 241
	.db #0xf1	; 241
	.db #0xf1	; 241
	.db #0x11	; 17
	.db #0xf1	; 241
	.db #0xf1	; 241
	.db #0xf1	; 241
	.db #0xf1	; 241
	.db #0xf1	; 241
	.db #0xf1	; 241
	.db #0xf1	; 241
	.db #0x11	; 17
	.db #0xf1	; 241
	.db #0xf1	; 241
	.db #0xf1	; 241
	.db #0xf1	; 241
	.db #0xf1	; 241
	.db #0xf1	; 241
	.db #0xf1	; 241
	.db #0x11	; 17
	.db #0xf1	; 241
	.db #0xf1	; 241
	.db #0xf1	; 241
	.db #0xf1	; 241
	.db #0xf1	; 241
	.db #0xf1	; 241
	.db #0xf1	; 241
	.db #0x11	; 17
	.db #0xf1	; 241
	.db #0xf1	; 241
	.db #0xf1	; 241
	.db #0xf1	; 241
	.db #0xf1	; 241
	.db #0xf1	; 241
	.db #0xf1	; 241
	.db #0x11	; 17
	.db #0xf1	; 241
	.db #0xf1	; 241
	.db #0xf1	; 241
	.db #0xf1	; 241
	.db #0xf1	; 241
	.db #0xf1	; 241
	.db #0xf1	; 241
	.db #0x11	; 17
	.db #0xf1	; 241
	.db #0xf1	; 241
	.db #0xf1	; 241
	.db #0xf1	; 241
	.db #0xf1	; 241
	.db #0xf1	; 241
	.db #0xf1	; 241
	.db #0x11	; 17
	.db #0xf1	; 241
	.db #0xf1	; 241
	.db #0xf1	; 241
	.db #0xf1	; 241
	.db #0xf1	; 241
	.db #0xf1	; 241
	.db #0xf1	; 241
	.db #0x11	; 17
	.db #0xf1	; 241
	.db #0xf1	; 241
	.db #0xf1	; 241
	.db #0xf1	; 241
	.db #0xf1	; 241
	.db #0xf1	; 241
	.db #0xf1	; 241
	.db #0x11	; 17
	.db #0xf1	; 241
	.db #0xf1	; 241
	.db #0xf1	; 241
	.db #0xf1	; 241
	.db #0xf1	; 241
	.db #0xf1	; 241
	.db #0xf1	; 241
	.db #0x11	; 17
	.db #0xf1	; 241
	.db #0xf1	; 241
	.db #0xf1	; 241
	.db #0xf1	; 241
	.db #0xf1	; 241
	.db #0xf1	; 241
	.db #0xf1	; 241
	.db #0x11	; 17
	.db #0x11	; 17
	.db #0xf1	; 241
	.db #0xf1	; 241
	.db #0xf1	; 241
	.db #0xf1	; 241
	.db #0xf1	; 241
	.db #0x11	; 17
	.db #0x11	; 17
	.db #0xf1	; 241
	.db #0xf1	; 241
	.db #0xf1	; 241
	.db #0xf1	; 241
	.db #0xf1	; 241
	.db #0xf1	; 241
	.db #0xf1	; 241
	.db #0x11	; 17
	.db #0xf1	; 241
	.db #0xf1	; 241
	.db #0xf1	; 241
	.db #0xf1	; 241
	.db #0x11	; 17
	.db #0x11	; 17
	.db #0x11	; 17
	.db #0x11	; 17
	.db #0x11	; 17
	.db #0x14	; 20
	.db #0xb1	; 177
	.db #0x21	; 33
	.db #0x1c	; 28
	.db #0x1c	; 28
	.db #0xb1	; 177
	.db #0xba	; 186
	.db #0x11	; 17
	.db #0x61	; 97	'a'
	.db #0x61	; 97	'a'
	.db #0x61	; 97	'a'
	.db #0x61	; 97	'a'
	.db #0x61	; 97	'a'
	.db #0x61	; 97	'a'
	.db #0x11	; 17
	.db #0x11	; 17
	.db #0x11	; 17
	.db #0x11	; 17
	.db #0x11	; 17
	.db #0x11	; 17
	.db #0x11	; 17
	.db #0x11	; 17
	.db #0x11	; 17
	.db #0x11	; 17
	.db #0x11	; 17
	.db #0x11	; 17
	.db #0x11	; 17
	.db #0x11	; 17
	.db #0x11	; 17
	.db #0x11	; 17
	.db #0x11	; 17
	.db #0x11	; 17
	.db #0x11	; 17
	.db #0x11	; 17
	.db #0x11	; 17
	.db #0x11	; 17
	.db #0x11	; 17
	.db #0x11	; 17
	.db #0x11	; 17
	.db #0x11	; 17
	.db #0x11	; 17
	.db #0x11	; 17
	.db #0x11	; 17
	.db #0x11	; 17
	.db #0x11	; 17
	.db #0x11	; 17
	.db #0x11	; 17
	.db #0x11	; 17
	.db #0x11	; 17
	.db #0x11	; 17
	.db #0x11	; 17
	.db #0x11	; 17
	.db #0x11	; 17
	.db #0x11	; 17
	.db #0x11	; 17
	.db #0x11	; 17
	.db #0x11	; 17
	.db #0x11	; 17
	.db #0x11	; 17
	.db #0x11	; 17
	.db #0x11	; 17
	.db #0x11	; 17
	.db #0x11	; 17
	.db #0x11	; 17
	.db #0x11	; 17
	.db #0x11	; 17
	.db #0x11	; 17
	.db #0x11	; 17
	.db #0x11	; 17
	.db #0x11	; 17
	.db #0x11	; 17
	.db #0x11	; 17
	.db #0x11	; 17
	.db #0x11	; 17
	.db #0x11	; 17
	.db #0x11	; 17
	.db #0x11	; 17
	.db #0x11	; 17
	.db #0x11	; 17
	.db #0x11	; 17
	.db #0x11	; 17
	.db #0x11	; 17
	.db #0x11	; 17
	.db #0x11	; 17
	.db #0x11	; 17
	.db #0x11	; 17
	.db #0x11	; 17
	.db #0x11	; 17
	.db #0x11	; 17
	.db #0x11	; 17
	.db #0x11	; 17
	.db #0x11	; 17
	.db #0x11	; 17
	.db #0x11	; 17
	.db #0x11	; 17
	.db #0x11	; 17
	.db #0x11	; 17
	.db #0x11	; 17
	.db #0x11	; 17
	.db #0x11	; 17
	.db #0x11	; 17
	.db #0x11	; 17
	.db #0x11	; 17
	.db #0x11	; 17
	.db #0x11	; 17
	.db #0x11	; 17
	.db #0x11	; 17
	.db #0x11	; 17
	.db #0x11	; 17
	.db #0x11	; 17
	.db #0x11	; 17
	.db #0x11	; 17
	.db #0x11	; 17
	.db #0x11	; 17
	.db #0x11	; 17
	.db #0x11	; 17
	.db #0x11	; 17
	.db #0x11	; 17
	.db #0x11	; 17
	.db #0x11	; 17
	.db #0x11	; 17
	.db #0x11	; 17
	.db #0x11	; 17
	.db #0x11	; 17
	.db #0x11	; 17
	.db #0x11	; 17
	.db #0x11	; 17
	.db #0x11	; 17
	.db #0x11	; 17
	.db #0x11	; 17
	.db #0x11	; 17
	.db #0x11	; 17
	.db #0x11	; 17
	.db #0x11	; 17
	.db #0x11	; 17
	.db #0x11	; 17
	.db #0x11	; 17
	.db #0x11	; 17
	.db #0x11	; 17
	.db #0x11	; 17
	.db #0x11	; 17
	.db #0x11	; 17
	.db #0x11	; 17
	.db #0x11	; 17
	.db #0x11	; 17
	.db #0x11	; 17
	.db #0x11	; 17
	.db #0x11	; 17
	.db #0x11	; 17
	.db #0x11	; 17
	.db #0x11	; 17
	.db #0x11	; 17
	.db #0x11	; 17
	.db #0x11	; 17
	.db #0x11	; 17
	.db #0x11	; 17
	.db #0x11	; 17
	.db #0x11	; 17
	.db #0x11	; 17
	.db #0x11	; 17
	.db #0x11	; 17
	.db #0x11	; 17
	.db #0x11	; 17
	.db #0x11	; 17
	.db #0x11	; 17
	.db #0x11	; 17
	.db #0x11	; 17
	.db #0x11	; 17
	.db #0x11	; 17
	.db #0x11	; 17
	.db #0x11	; 17
	.db #0x11	; 17
	.db #0x11	; 17
	.db #0x11	; 17
	.db #0x11	; 17
	.db #0x11	; 17
	.db #0x11	; 17
	.db #0x11	; 17
	.db #0x11	; 17
	.db #0x11	; 17
	.db #0x11	; 17
	.db #0x11	; 17
	.db #0x11	; 17
	.db #0x11	; 17
	.db #0x11	; 17
	.db #0x11	; 17
	.db #0x11	; 17
	.db #0x11	; 17
	.db #0x11	; 17
	.db #0x11	; 17
	.db #0x11	; 17
	.db #0x11	; 17
	.db #0x11	; 17
	.db #0x11	; 17
	.db #0x11	; 17
	.db #0x11	; 17
	.db #0x11	; 17
	.db #0x11	; 17
	.db #0x11	; 17
	.db #0x11	; 17
	.db #0x11	; 17
	.db #0x11	; 17
	.db #0x11	; 17
	.db #0x11	; 17
	.db #0x11	; 17
	.db #0x11	; 17
	.db #0x11	; 17
	.db #0x11	; 17
	.db #0x11	; 17
	.db #0x11	; 17
	.db #0x11	; 17
	.db #0x11	; 17
	.db #0x11	; 17
	.db #0x11	; 17
	.db #0x11	; 17
	.db #0x11	; 17
	.db #0x11	; 17
	.db #0x11	; 17
	.db #0x11	; 17
	.db #0x11	; 17
	.db #0x11	; 17
	.db #0x11	; 17
	.db #0x11	; 17
	.db #0x11	; 17
	.db #0x11	; 17
	.db #0x11	; 17
	.db #0x11	; 17
	.db #0x11	; 17
	.db #0x11	; 17
	.db #0x11	; 17
	.db #0x11	; 17
	.db #0x11	; 17
	.db #0x11	; 17
	.db #0x11	; 17
	.db #0x11	; 17
	.db #0x11	; 17
	.db #0x11	; 17
	.db #0x11	; 17
	.db #0x11	; 17
	.db #0x11	; 17
	.db #0x11	; 17
	.db #0x11	; 17
	.db #0x11	; 17
	.db #0x11	; 17
	.db #0x11	; 17
	.db #0x11	; 17
	.db #0x11	; 17
	.db #0x11	; 17
	.db #0x11	; 17
	.db #0x11	; 17
	.db #0x11	; 17
	.db #0x11	; 17
	.db #0x11	; 17
	.db #0x11	; 17
	.db #0x11	; 17
	.db #0xba	; 186
	.db #0xba	; 186
	.db #0xba	; 186
	.db #0xba	; 186
	.db #0x1c	; 28
	.db #0x1c	; 28
	.db #0x21	; 33
	.db #0x11	; 17
	.db #0x11	; 17
	.db #0x11	; 17
	.db #0x11	; 17
	.db #0x11	; 17
	.db #0x11	; 17
	.db #0x11	; 17
	.db #0x11	; 17
	.db #0x11	; 17
	.db #0x11	; 17
	.db #0x11	; 17
	.db #0x11	; 17
	.db #0x11	; 17
	.db #0x11	; 17
	.db #0x11	; 17
	.db #0x11	; 17
	.db #0x11	; 17
	.db #0x11	; 17
	.db #0x11	; 17
	.db #0x11	; 17
	.db #0x11	; 17
	.db #0x11	; 17
	.db #0x11	; 17
	.db #0x11	; 17
	.db #0x11	; 17
	.db #0x11	; 17
	.db #0x11	; 17
	.db #0x11	; 17
	.db #0x11	; 17
	.db #0x11	; 17
	.db #0x11	; 17
	.db #0x11	; 17
	.db #0x11	; 17
	.db #0x11	; 17
	.db #0x11	; 17
	.db #0x11	; 17
	.db #0x11	; 17
	.db #0x11	; 17
	.db #0x11	; 17
	.db #0x11	; 17
	.db #0x11	; 17
	.db #0x11	; 17
	.db #0x11	; 17
	.db #0x11	; 17
	.db #0x11	; 17
	.db #0x11	; 17
	.db #0x11	; 17
	.db #0x11	; 17
	.db #0x11	; 17
	.db #0x11	; 17
	.db #0x11	; 17
	.db #0x11	; 17
	.db #0x11	; 17
	.db #0x11	; 17
	.db #0x11	; 17
	.db #0x11	; 17
	.db #0x11	; 17
	.db #0x11	; 17
	.db #0x11	; 17
	.db #0x11	; 17
	.db #0x11	; 17
	.db #0x11	; 17
	.db #0x11	; 17
	.db #0x11	; 17
	.db #0x11	; 17
	.db #0x11	; 17
	.db #0x11	; 17
	.db #0x11	; 17
	.db #0x11	; 17
	.db #0x11	; 17
	.db #0x11	; 17
	.db #0x11	; 17
	.db #0x11	; 17
	.db #0x11	; 17
	.db #0x11	; 17
	.db #0x11	; 17
	.db #0x11	; 17
	.db #0x11	; 17
	.db #0x11	; 17
	.db #0x11	; 17
	.db #0x11	; 17
	.db #0x11	; 17
	.db #0x11	; 17
	.db #0x11	; 17
	.db #0x11	; 17
	.db #0x11	; 17
	.db #0x11	; 17
	.db #0x11	; 17
	.db #0x11	; 17
	.db #0x11	; 17
	.db #0x11	; 17
	.db #0x11	; 17
	.db #0x11	; 17
	.db #0x11	; 17
	.db #0x11	; 17
	.db #0x11	; 17
	.db #0x11	; 17
	.db #0x11	; 17
	.db #0x11	; 17
	.db #0x11	; 17
	.db #0x11	; 17
	.db #0x11	; 17
	.db #0x11	; 17
	.db #0x11	; 17
	.db #0x11	; 17
	.db #0x11	; 17
	.db #0x11	; 17
	.db #0x11	; 17
	.db #0x11	; 17
	.db #0x11	; 17
	.db #0x11	; 17
	.db #0x11	; 17
	.db #0x11	; 17
	.db #0x11	; 17
	.db #0x11	; 17
	.db #0x11	; 17
	.db #0x11	; 17
	.db #0x11	; 17
	.db #0x11	; 17
	.db #0x11	; 17
	.db #0x11	; 17
	.db #0x11	; 17
	.db #0x11	; 17
	.db #0x11	; 17
	.db #0x11	; 17
	.db #0x11	; 17
	.db #0x11	; 17
	.db #0x11	; 17
	.db #0x11	; 17
	.db #0x11	; 17
	.db #0x11	; 17
	.db #0x11	; 17
	.db #0x11	; 17
	.db #0x11	; 17
	.db #0x11	; 17
	.db #0x11	; 17
	.db #0x11	; 17
	.db #0x11	; 17
	.db #0x11	; 17
	.db #0x11	; 17
	.db #0x11	; 17
	.db #0x11	; 17
	.db #0x11	; 17
	.db #0x11	; 17
	.db #0x11	; 17
	.db #0x11	; 17
	.db #0x11	; 17
	.db #0x11	; 17
	.db #0x11	; 17
	.db #0x11	; 17
	.db #0x11	; 17
	.db #0x11	; 17
	.db #0x11	; 17
	.db #0x11	; 17
	.db #0x11	; 17
	.db #0x11	; 17
	.db #0x11	; 17
	.db #0x11	; 17
	.db #0x11	; 17
	.db #0x11	; 17
	.db #0x11	; 17
	.db #0x11	; 17
	.db #0x11	; 17
	.db #0x11	; 17
	.db #0x11	; 17
	.db #0x11	; 17
	.db #0x11	; 17
	.db #0x11	; 17
	.db #0x11	; 17
	.db #0x11	; 17
	.db #0x11	; 17
	.db #0x11	; 17
	.db #0x11	; 17
	.db #0x11	; 17
	.db #0x11	; 17
	.db #0x11	; 17
	.db #0x11	; 17
	.db #0x11	; 17
	.db #0x11	; 17
	.db #0x11	; 17
	.db #0x11	; 17
	.db #0x11	; 17
	.db #0x11	; 17
	.db #0x11	; 17
	.db #0x11	; 17
	.db #0x11	; 17
	.db #0x11	; 17
	.db #0x11	; 17
	.db #0x11	; 17
	.db #0x11	; 17
	.db #0x11	; 17
	.db #0x11	; 17
	.db #0x11	; 17
	.db #0x11	; 17
	.db #0x11	; 17
	.db #0x11	; 17
	.db #0x11	; 17
	.db #0x11	; 17
	.db #0x11	; 17
	.db #0x11	; 17
	.db #0x11	; 17
	.db #0x11	; 17
	.db #0x11	; 17
	.db #0x11	; 17
	.db #0x11	; 17
	.db #0x11	; 17
	.db #0x11	; 17
	.db #0x11	; 17
	.db #0x11	; 17
	.db #0x11	; 17
	.db #0x11	; 17
	.db #0x11	; 17
	.db #0x11	; 17
	.db #0x11	; 17
	.db #0x11	; 17
	.db #0x11	; 17
	.db #0x11	; 17
	.db #0x11	; 17
	.db #0x11	; 17
	.db #0x11	; 17
	.db #0x11	; 17
	.db #0x11	; 17
	.db #0x11	; 17
	.db #0x11	; 17
	.db #0x11	; 17
	.db #0x11	; 17
	.db #0x11	; 17
	.db #0x11	; 17
	.db #0x11	; 17
	.db #0x11	; 17
	.db #0x11	; 17
	.db #0x11	; 17
	.db #0x11	; 17
	.db #0x11	; 17
	.db #0x11	; 17
	.db #0x11	; 17
	.db #0x11	; 17
	.db #0x11	; 17
	.db #0x11	; 17
	.db #0x11	; 17
	.db #0x11	; 17
	.db #0x11	; 17
	.db #0x11	; 17
	.db #0x11	; 17
	.db #0x11	; 17
	.db #0x11	; 17
	.db #0x11	; 17
	.db #0x11	; 17
	.db #0x11	; 17
	G$main$0$0	= .
	.globl	G$main$0$0
	C$main.c$31$1_0$30	= .
	.globl	C$main.c$31$1_0$30
;main.c:31: void main()
;	---------------------------------
; Function main
; ---------------------------------
_main::
	C$main.c$34$1_0$30	= .
	.globl	C$main.c$34$1_0$30
;main.c:34: ubox_init_isr(2);
	ld	l, #0x02
	call	_ubox_init_isr
	C$main.c$36$1_0$30	= .
	.globl	C$main.c$36$1_0$30
;main.c:36: ubox_set_mode(2);
	ld	l, #0x02
	call	_ubox_set_mode
	C$main.c$38$1_0$30	= .
	.globl	C$main.c$38$1_0$30
;main.c:38: ubox_set_colors(1, 1, 1);
	ld	de, #0x0101
	push	de
	ld	a, #0x01
	push	af
	inc	sp
	call	_ubox_set_colors
	pop	af
	inc	sp
	C$main.c$40$1_0$30	= .
	.globl	C$main.c$40$1_0$30
;main.c:40: ubox_disable_screen();
	call	_ubox_disable_screen
	C$main.c$42$1_0$30	= .
	.globl	C$main.c$42$1_0$30
;main.c:42: ubox_set_tiles(tiles);
	ld	hl, #_tiles
	call	_ubox_set_tiles
	C$main.c$43$1_0$30	= .
	.globl	C$main.c$43$1_0$30
;main.c:43: ubox_set_tiles_colors(tiles_colors);
	ld	hl, #_tiles_colors
	call	_ubox_set_tiles_colors
	C$main.c$45$1_0$30	= .
	.globl	C$main.c$45$1_0$30
;main.c:45: ubox_fill_screen(WHITESPACE_TILE);
	ld	l, #0x81
	call	_ubox_fill_screen
	C$main.c$46$1_0$30	= .
	.globl	C$main.c$46$1_0$30
;main.c:46: put_text(11, 11, "EFFECTS TEST");
	ld	hl, #___str_0
	push	hl
	ld	de, #0x0b0b
	push	de
	call	_put_text
	pop	af
	pop	af
	C$main.c$48$1_0$30	= .
	.globl	C$main.c$48$1_0$30
;main.c:48: ubox_enable_screen();
	call	_ubox_enable_screen
	C$main.c$50$1_0$30	= .
	.globl	C$main.c$50$1_0$30
;main.c:50: mplayer_init(SONG, 0);
	xor	a, a
	push	af
	inc	sp
	ld	hl, #_SONG
	push	hl
	call	_mplayer_init
	pop	af
	inc	sp
	C$main.c$51$1_0$30	= .
	.globl	C$main.c$51$1_0$30
;main.c:51: mplayer_init_effects(EFFECTS);
	ld	hl, #_EFFECTS
	call	_mplayer_init_effects
	C$main.c$53$1_0$30	= .
	.globl	C$main.c$53$1_0$30
;main.c:53: ubox_set_user_isr(mplayer_play);
	ld	hl, #_mplayer_play
	call	_ubox_set_user_isr
	C$main.c$56$1_0$30	= .
	.globl	C$main.c$56$1_0$30
;main.c:56: while (1)
00114$:
	C$main.c$58$2_0$31	= .
	.globl	C$main.c$58$2_0$31
;main.c:58: if (ubox_read_keys(7) == UBOX_MSX_KEY_ESC)
	ld	l, #0x07
	call	_ubox_read_keys
	ld	a, l
	sub	a, #0x04
	ret	Z
	C$main.c$61$2_0$31	= .
	.globl	C$main.c$61$2_0$31
;main.c:61: if (ubox_read_keys(0) == UBOX_MSX_KEY_1)
	ld	l, #0x00
	call	_ubox_read_keys
	ld	a, l
	sub	a, #0x02
	jr	NZ,00104$
	C$main.c$62$2_0$31	= .
	.globl	C$main.c$62$2_0$31
;main.c:62: mplayer_play_effect_p(EFX_START, EFX_CHAN_NO, 0);
	xor	a, a
	ld	d,a
	ld	e,#0x02
	push	de
	ld	a, #0x01
	push	af
	inc	sp
	call	_mplayer_play_effect_p
	pop	af
	inc	sp
00104$:
	C$main.c$64$2_0$31	= .
	.globl	C$main.c$64$2_0$31
;main.c:64: if (ubox_read_keys(0) == UBOX_MSX_KEY_2)
	ld	l, #0x00
	call	_ubox_read_keys
	ld	a, l
	sub	a, #0x04
	jr	NZ,00106$
	C$main.c$65$2_0$31	= .
	.globl	C$main.c$65$2_0$31
;main.c:65: mplayer_play_effect_p(EFX_BATTERY, EFX_CHAN_NO, 0);
	xor	a, a
	ld	d,a
	ld	e,#0x02
	push	de
	ld	a, #0x02
	push	af
	inc	sp
	call	_mplayer_play_effect_p
	pop	af
	inc	sp
00106$:
	C$main.c$67$2_0$31	= .
	.globl	C$main.c$67$2_0$31
;main.c:67: if (ubox_read_keys(0) == UBOX_MSX_KEY_3)
	ld	l, #0x00
	call	_ubox_read_keys
	ld	a, l
	sub	a, #0x08
	jr	NZ,00108$
	C$main.c$68$2_0$31	= .
	.globl	C$main.c$68$2_0$31
;main.c:68: mplayer_play_effect_p(EFX_ELEVATOR, EFX_CHAN_NO, 0);
	xor	a, a
	ld	d,a
	ld	e,#0x02
	push	de
	ld	a, #0x03
	push	af
	inc	sp
	call	_mplayer_play_effect_p
	pop	af
	inc	sp
00108$:
	C$main.c$70$2_0$31	= .
	.globl	C$main.c$70$2_0$31
;main.c:70: if (ubox_read_keys(0) == UBOX_MSX_KEY_4)
	ld	l, #0x00
	call	_ubox_read_keys
	ld	a, l
	sub	a, #0x10
	jr	NZ,00110$
	C$main.c$71$2_0$31	= .
	.globl	C$main.c$71$2_0$31
;main.c:71: mplayer_play_effect_p(EFX_HIT, EFX_CHAN_NO, 0);
	xor	a, a
	ld	d,a
	ld	e,#0x02
	push	de
	ld	a, #0x04
	push	af
	inc	sp
	call	_mplayer_play_effect_p
	pop	af
	inc	sp
00110$:
	C$main.c$73$2_0$31	= .
	.globl	C$main.c$73$2_0$31
;main.c:73: if (ubox_read_keys(0) == UBOX_MSX_KEY_5)
	ld	l, #0x00
	call	_ubox_read_keys
	ld	a, l
	sub	a, #0x20
	jr	NZ,00112$
	C$main.c$74$2_0$31	= .
	.globl	C$main.c$74$2_0$31
;main.c:74: mplayer_play_effect_p(EFX_DEAD, EFX_CHAN_NO, 0);
	xor	a, a
	ld	d,a
	ld	e,#0x02
	push	de
	ld	a, #0x05
	push	af
	inc	sp
	call	_mplayer_play_effect_p
	pop	af
	inc	sp
00112$:
	C$main.c$76$2_0$31	= .
	.globl	C$main.c$76$2_0$31
;main.c:76: ubox_wait();
	call	_ubox_wait
	C$main.c$78$1_0$30	= .
	.globl	C$main.c$78$1_0$30
;main.c:78: }
	C$main.c$78$1_0$30	= .
	.globl	C$main.c$78$1_0$30
	XG$main$0$0	= .
	.globl	XG$main$0$0
	jp	00114$
Fmain$__str_0$0_0$0 == .
___str_0:
	.ascii "EFFECTS TEST"
	.db 0x00
	.area _CODE
	.area _INITIALIZER
	.area _CABS (ABS)
